Archive member included to satisfy reference by file (symbol)

c:/program files (x86)/atmel/studio/7.0/toolchain/avr8/avr8-gnu-toolchain/bin/../lib/gcc/avr/5.4.0/../../../../avr/lib/avr51\libm.a(addsf3.o)
                              922/GAINClass.o (__subsf3)
c:/program files (x86)/atmel/studio/7.0/toolchain/avr8/avr8-gnu-toolchain/bin/../lib/gcc/avr/5.4.0/../../../../avr/lib/avr51\libm.a(addsf3x.o)
                              c:/program files (x86)/atmel/studio/7.0/toolchain/avr8/avr8-gnu-toolchain/bin/../lib/gcc/avr/5.4.0/../../../../avr/lib/avr51\libm.a(addsf3.o) (__addsf3x)
c:/program files (x86)/atmel/studio/7.0/toolchain/avr8/avr8-gnu-toolchain/bin/../lib/gcc/avr/5.4.0/../../../../avr/lib/avr51\libm.a(cmpsf2.o)
                              922/GAINClass.o (__ltsf2)
c:/program files (x86)/atmel/studio/7.0/toolchain/avr8/avr8-gnu-toolchain/bin/../lib/gcc/avr/5.4.0/../../../../avr/lib/avr51\libm.a(divsf3.o)
                              922/GAINClass.o (__divsf3)
c:/program files (x86)/atmel/studio/7.0/toolchain/avr8/avr8-gnu-toolchain/bin/../lib/gcc/avr/5.4.0/../../../../avr/lib/avr51\libm.a(divsf3x.o)
                              c:/program files (x86)/atmel/studio/7.0/toolchain/avr8/avr8-gnu-toolchain/bin/../lib/gcc/avr/5.4.0/../../../../avr/lib/avr51\libm.a(divsf3.o) (__divsf3x)
c:/program files (x86)/atmel/studio/7.0/toolchain/avr8/avr8-gnu-toolchain/bin/../lib/gcc/avr/5.4.0/../../../../avr/lib/avr51\libm.a(exp.o)
                              922/GAINClass.o (exp)
c:/program files (x86)/atmel/studio/7.0/toolchain/avr8/avr8-gnu-toolchain/bin/../lib/gcc/avr/5.4.0/../../../../avr/lib/avr51\libm.a(fixsfsi.o)
                              922/GAINClass.o (__fixsfsi)
c:/program files (x86)/atmel/studio/7.0/toolchain/avr8/avr8-gnu-toolchain/bin/../lib/gcc/avr/5.4.0/../../../../avr/lib/avr51\libm.a(fixunssfsi.o)
                              Application/eDeviceStream.o (__fixunssfsi)
c:/program files (x86)/atmel/studio/7.0/toolchain/avr8/avr8-gnu-toolchain/bin/../lib/gcc/avr/5.4.0/../../../../avr/lib/avr51\libm.a(floatsisf.o)
                              922/GAINClass.o (__floatunsisf)
c:/program files (x86)/atmel/studio/7.0/toolchain/avr8/avr8-gnu-toolchain/bin/../lib/gcc/avr/5.4.0/../../../../avr/lib/avr51\libm.a(fmod.o)
                              Application/eDeviceStream.o (fmod)
c:/program files (x86)/atmel/studio/7.0/toolchain/avr8/avr8-gnu-toolchain/bin/../lib/gcc/avr/5.4.0/../../../../avr/lib/avr51\libm.a(fp_cmp.o)
                              c:/program files (x86)/atmel/studio/7.0/toolchain/avr8/avr8-gnu-toolchain/bin/../lib/gcc/avr/5.4.0/../../../../avr/lib/avr51\libm.a(cmpsf2.o) (__fp_cmp)
c:/program files (x86)/atmel/studio/7.0/toolchain/avr8/avr8-gnu-toolchain/bin/../lib/gcc/avr/5.4.0/../../../../avr/lib/avr51\libm.a(fp_inf.o)
                              c:/program files (x86)/atmel/studio/7.0/toolchain/avr8/avr8-gnu-toolchain/bin/../lib/gcc/avr/5.4.0/../../../../avr/lib/avr51\libm.a(addsf3x.o) (__fp_inf)
c:/program files (x86)/atmel/studio/7.0/toolchain/avr8/avr8-gnu-toolchain/bin/../lib/gcc/avr/5.4.0/../../../../avr/lib/avr51\libm.a(fp_mpack.o)
                              c:/program files (x86)/atmel/studio/7.0/toolchain/avr8/avr8-gnu-toolchain/bin/../lib/gcc/avr/5.4.0/../../../../avr/lib/avr51\libm.a(fmod.o) (__fp_mpack)
c:/program files (x86)/atmel/studio/7.0/toolchain/avr8/avr8-gnu-toolchain/bin/../lib/gcc/avr/5.4.0/../../../../avr/lib/avr51\libm.a(fp_nan.o)
                              c:/program files (x86)/atmel/studio/7.0/toolchain/avr8/avr8-gnu-toolchain/bin/../lib/gcc/avr/5.4.0/../../../../avr/lib/avr51\libm.a(addsf3x.o) (__fp_nan)
c:/program files (x86)/atmel/studio/7.0/toolchain/avr8/avr8-gnu-toolchain/bin/../lib/gcc/avr/5.4.0/../../../../avr/lib/avr51\libm.a(fp_powser.o)
                              c:/program files (x86)/atmel/studio/7.0/toolchain/avr8/avr8-gnu-toolchain/bin/../lib/gcc/avr/5.4.0/../../../../avr/lib/avr51\libm.a(exp.o) (__fp_powser)
c:/program files (x86)/atmel/studio/7.0/toolchain/avr8/avr8-gnu-toolchain/bin/../lib/gcc/avr/5.4.0/../../../../avr/lib/avr51\libm.a(fp_pscA.o)
                              c:/program files (x86)/atmel/studio/7.0/toolchain/avr8/avr8-gnu-toolchain/bin/../lib/gcc/avr/5.4.0/../../../../avr/lib/avr51\libm.a(addsf3x.o) (__fp_pscA)
c:/program files (x86)/atmel/studio/7.0/toolchain/avr8/avr8-gnu-toolchain/bin/../lib/gcc/avr/5.4.0/../../../../avr/lib/avr51\libm.a(fp_pscB.o)
                              c:/program files (x86)/atmel/studio/7.0/toolchain/avr8/avr8-gnu-toolchain/bin/../lib/gcc/avr/5.4.0/../../../../avr/lib/avr51\libm.a(addsf3x.o) (__fp_pscB)
c:/program files (x86)/atmel/studio/7.0/toolchain/avr8/avr8-gnu-toolchain/bin/../lib/gcc/avr/5.4.0/../../../../avr/lib/avr51\libm.a(fp_round.o)
                              c:/program files (x86)/atmel/studio/7.0/toolchain/avr8/avr8-gnu-toolchain/bin/../lib/gcc/avr/5.4.0/../../../../avr/lib/avr51\libm.a(addsf3.o) (__fp_round)
c:/program files (x86)/atmel/studio/7.0/toolchain/avr8/avr8-gnu-toolchain/bin/../lib/gcc/avr/5.4.0/../../../../avr/lib/avr51\libm.a(fp_split3.o)
                              c:/program files (x86)/atmel/studio/7.0/toolchain/avr8/avr8-gnu-toolchain/bin/../lib/gcc/avr/5.4.0/../../../../avr/lib/avr51\libm.a(addsf3x.o) (__fp_split3)
c:/program files (x86)/atmel/studio/7.0/toolchain/avr8/avr8-gnu-toolchain/bin/../lib/gcc/avr/5.4.0/../../../../avr/lib/avr51\libm.a(fp_zero.o)
                              c:/program files (x86)/atmel/studio/7.0/toolchain/avr8/avr8-gnu-toolchain/bin/../lib/gcc/avr/5.4.0/../../../../avr/lib/avr51\libm.a(addsf3x.o) (__fp_zero)
c:/program files (x86)/atmel/studio/7.0/toolchain/avr8/avr8-gnu-toolchain/bin/../lib/gcc/avr/5.4.0/../../../../avr/lib/avr51\libm.a(gesf2.o)
                              922/GAINClass.o (__gtsf2)
c:/program files (x86)/atmel/studio/7.0/toolchain/avr8/avr8-gnu-toolchain/bin/../lib/gcc/avr/5.4.0/../../../../avr/lib/avr51\libm.a(inverse.o)
                              c:/program files (x86)/atmel/studio/7.0/toolchain/avr8/avr8-gnu-toolchain/bin/../lib/gcc/avr/5.4.0/../../../../avr/lib/avr51\libm.a(exp.o) (inverse)
c:/program files (x86)/atmel/studio/7.0/toolchain/avr8/avr8-gnu-toolchain/bin/../lib/gcc/avr/5.4.0/../../../../avr/lib/avr51\libm.a(ldexp.o)
                              c:/program files (x86)/atmel/studio/7.0/toolchain/avr8/avr8-gnu-toolchain/bin/../lib/gcc/avr/5.4.0/../../../../avr/lib/avr51\libm.a(exp.o) (ldexp)
c:/program files (x86)/atmel/studio/7.0/toolchain/avr8/avr8-gnu-toolchain/bin/../lib/gcc/avr/5.4.0/../../../../avr/lib/avr51\libm.a(log.o)
                              922/GAINClass.o (log)
c:/program files (x86)/atmel/studio/7.0/toolchain/avr8/avr8-gnu-toolchain/bin/../lib/gcc/avr/5.4.0/../../../../avr/lib/avr51\libm.a(modf.o)
                              c:/program files (x86)/atmel/studio/7.0/toolchain/avr8/avr8-gnu-toolchain/bin/../lib/gcc/avr/5.4.0/../../../../avr/lib/avr51\libm.a(exp.o) (modf)
c:/program files (x86)/atmel/studio/7.0/toolchain/avr8/avr8-gnu-toolchain/bin/../lib/gcc/avr/5.4.0/../../../../avr/lib/avr51\libm.a(mulsf3.o)
                              922/GAINClass.o (__mulsf3)
c:/program files (x86)/atmel/studio/7.0/toolchain/avr8/avr8-gnu-toolchain/bin/../lib/gcc/avr/5.4.0/../../../../avr/lib/avr51\libm.a(mulsf3x.o)
                              c:/program files (x86)/atmel/studio/7.0/toolchain/avr8/avr8-gnu-toolchain/bin/../lib/gcc/avr/5.4.0/../../../../avr/lib/avr51\libm.a(fp_powser.o) (__mulsf3x)
c:/program files (x86)/atmel/studio/7.0/toolchain/avr8/avr8-gnu-toolchain/bin/../lib/gcc/avr/5.4.0/avr51\libgcc.a(_divmodhi4.o)
                              Application/eDeviceStream.o (__divmodhi4)
c:/program files (x86)/atmel/studio/7.0/toolchain/avr8/avr8-gnu-toolchain/bin/../lib/gcc/avr/5.4.0/avr51\libgcc.a(_udivmodsi4.o)
                              Application/eDeviceStream.o (__udivmodsi4)
c:/program files (x86)/atmel/studio/7.0/toolchain/avr8/avr8-gnu-toolchain/bin/../lib/gcc/avr/5.4.0/avr51\libgcc.a(_divmodsi4.o)
                              922/GAINClass.o (__divmodsi4)
c:/program files (x86)/atmel/studio/7.0/toolchain/avr8/avr8-gnu-toolchain/bin/../lib/gcc/avr/5.4.0/avr51\libgcc.a(_negsi2.o)
                              c:/program files (x86)/atmel/studio/7.0/toolchain/avr8/avr8-gnu-toolchain/bin/../lib/gcc/avr/5.4.0/avr51\libgcc.a(_divmodsi4.o) (__negsi2)
c:/program files (x86)/atmel/studio/7.0/toolchain/avr8/avr8-gnu-toolchain/bin/../lib/gcc/avr/5.4.0/avr51\libgcc.a(_exit.o)
                              C:/Program Files (x86)/Atmel/Studio/7.0/Packs/Atmel/ATmega_DFP/1.3.300/gcc/dev/at90can128/avr51/crtat90can128.o (exit)
c:/program files (x86)/atmel/studio/7.0/toolchain/avr8/avr8-gnu-toolchain/bin/../lib/gcc/avr/5.4.0/avr51\libgcc.a(_tablejump2.o)
                              922/GAINClass.o (__tablejump2__)
c:/program files (x86)/atmel/studio/7.0/toolchain/avr8/avr8-gnu-toolchain/bin/../lib/gcc/avr/5.4.0/avr51\libgcc.a(_copy_data.o)
                              922/version.o (__do_copy_data)
c:/program files (x86)/atmel/studio/7.0/toolchain/avr8/avr8-gnu-toolchain/bin/../lib/gcc/avr/5.4.0/avr51\libgcc.a(_clear_bss.o)
                              922/GAINClass.o (__do_clear_bss)
c:/program files (x86)/atmel/studio/7.0/toolchain/avr8/avr8-gnu-toolchain/bin/../lib/gcc/avr/5.4.0/avr51\libgcc.a(_ctors.o)
                              922/GAINClass.o (__do_global_ctors)
c:/program files (x86)/atmel/studio/7.0/toolchain/avr8/avr8-gnu-toolchain/bin/../lib/gcc/avr/5.4.0/avr51\libgcc.a(_dtors.o)
                              Application/eDevice.o (__do_global_dtors)
c:/program files (x86)/atmel/studio/7.0/toolchain/avr8/avr8-gnu-toolchain/bin/../lib/gcc/avr/5.4.0/avr51\libgcc.a(_umulhisi3.o)
                              922/GAINClass.o (__umulhisi3)
c:/program files (x86)/atmel/studio/7.0/toolchain/avr8/avr8-gnu-toolchain/bin/../lib/gcc/avr/5.4.0/avr51\libgcc.a(_usmulhisi3.o)
                              922/GAINClass.o (__usmulhisi3)
c:/program files (x86)/atmel/studio/7.0/toolchain/avr8/avr8-gnu-toolchain/bin/../lib/gcc/avr/5.4.0/avr51\libgcc.a(_muluhisi3.o)
                              922/GAINClass.o (__muluhisi3)
c:/program files (x86)/atmel/studio/7.0/toolchain/avr8/avr8-gnu-toolchain/bin/../lib/gcc/avr/5.4.0/avr51\libgcc.a(_udivmodhi4.o)
                              c:/program files (x86)/atmel/studio/7.0/toolchain/avr8/avr8-gnu-toolchain/bin/../lib/gcc/avr/5.4.0/avr51\libgcc.a(_divmodhi4.o) (__udivmodhi4)
c:/program files (x86)/atmel/studio/7.0/toolchain/avr8/avr8-gnu-toolchain/bin/../lib/gcc/avr/5.4.0/../../../../avr/lib/avr51\libc.a(malloc.o)
                              Application/eDevice.o (malloc)
c:/program files (x86)/atmel/studio/7.0/toolchain/avr8/avr8-gnu-toolchain/bin/../lib/gcc/avr/5.4.0/../../../../avr/lib/avr51\libc.a(memcpy_P.o)
                              922/GAINClass.o (memcpy_P)
c:/program files (x86)/atmel/studio/7.0/toolchain/avr8/avr8-gnu-toolchain/bin/../lib/gcc/avr/5.4.0/../../../../avr/lib/avr51\libc.a(strncpy.o)
                              Common/MaintenanceTool.o (strncpy)
c:/program files (x86)/atmel/studio/7.0/toolchain/avr8/avr8-gnu-toolchain/bin/../lib/gcc/avr/5.4.0/../../../../avr/lib/avr51\libc.a(snprintf.o)
                              Application/eDeviceStream.o (snprintf)
c:/program files (x86)/atmel/studio/7.0/toolchain/avr8/avr8-gnu-toolchain/bin/../lib/gcc/avr/5.4.0/../../../../avr/lib/avr51\libc.a(vfprintf_std.o)
                              c:/program files (x86)/atmel/studio/7.0/toolchain/avr8/avr8-gnu-toolchain/bin/../lib/gcc/avr/5.4.0/../../../../avr/lib/avr51\libc.a(snprintf.o) (vfprintf)
c:/program files (x86)/atmel/studio/7.0/toolchain/avr8/avr8-gnu-toolchain/bin/../lib/gcc/avr/5.4.0/../../../../avr/lib/avr51\libc.a(strnlen_P.o)
                              c:/program files (x86)/atmel/studio/7.0/toolchain/avr8/avr8-gnu-toolchain/bin/../lib/gcc/avr/5.4.0/../../../../avr/lib/avr51\libc.a(vfprintf_std.o) (strnlen_P)
c:/program files (x86)/atmel/studio/7.0/toolchain/avr8/avr8-gnu-toolchain/bin/../lib/gcc/avr/5.4.0/../../../../avr/lib/avr51\libc.a(strnlen.o)
                              c:/program files (x86)/atmel/studio/7.0/toolchain/avr8/avr8-gnu-toolchain/bin/../lib/gcc/avr/5.4.0/../../../../avr/lib/avr51\libc.a(vfprintf_std.o) (strnlen)
c:/program files (x86)/atmel/studio/7.0/toolchain/avr8/avr8-gnu-toolchain/bin/../lib/gcc/avr/5.4.0/../../../../avr/lib/avr51\libc.a(fputc.o)
                              c:/program files (x86)/atmel/studio/7.0/toolchain/avr8/avr8-gnu-toolchain/bin/../lib/gcc/avr/5.4.0/../../../../avr/lib/avr51\libc.a(vfprintf_std.o) (fputc)
c:/program files (x86)/atmel/studio/7.0/toolchain/avr8/avr8-gnu-toolchain/bin/../lib/gcc/avr/5.4.0/../../../../avr/lib/avr51\libc.a(ultoa_invert.o)
                              c:/program files (x86)/atmel/studio/7.0/toolchain/avr8/avr8-gnu-toolchain/bin/../lib/gcc/avr/5.4.0/../../../../avr/lib/avr51\libc.a(vfprintf_std.o) (__ultoa_invert)

Allocating common symbols
Common symbol       size              file

SREGSave            0x1               Core/coreController.o
analogResultArray   0x10              Core/coreADConverter.o
analogConversionReadyMask
                    0x1               Core/coreADConverter.o
usart1DataReceived  0x1               Core/coreAsyncSerial.o
__brkval            0x2               c:/program files (x86)/atmel/studio/7.0/toolchain/avr8/avr8-gnu-toolchain/bin/../lib/gcc/avr/5.4.0/../../../../avr/lib/avr51\libc.a(malloc.o)
usart1TransferData  0x2               Core/coreAsyncSerial.o
usart1Data          0x80              Core/coreAsyncSerial.o
externalInterruptCounter
                    0x8               Core/coreController.o
usart1TransferRemaining
                    0x2               Core/coreAsyncSerial.o
usart1DataReceivedPointer
                    0x1               Core/coreAsyncSerial.o
usart1DataReadPointer
                    0x1               Core/coreAsyncSerial.o
configurationData   0xb0              Network/coreNSDStack.o
GAINMessageInhibitTimes
                    0x28              Network/coreNSDStack.o
__flp               0x2               c:/program files (x86)/atmel/studio/7.0/toolchain/avr8/avr8-gnu-toolchain/bin/../lib/gcc/avr/5.4.0/../../../../avr/lib/avr51\libc.a(malloc.o)

Discarded input sections

 .data          0x00000000        0x0 C:/Program Files (x86)/Atmel/Studio/7.0/Packs/Atmel/ATmega_DFP/1.3.300/gcc/dev/at90can128/avr51/crtat90can128.o
 .bss           0x00000000        0x0 C:/Program Files (x86)/Atmel/Studio/7.0/Packs/Atmel/ATmega_DFP/1.3.300/gcc/dev/at90can128/avr51/crtat90can128.o
 .text          0x00000000        0x0 922/error.o
 .data          0x00000000        0x0 922/error.o
 .bss           0x00000000        0x0 922/error.o
 .text          0x00000000        0x0 922/GAINClass.o
 .data          0x00000000        0x0 922/GAINClass.o
 .bss           0x00000000        0x0 922/GAINClass.o
 .text._ZN9GAINClass23prepareStateChangeEventER5eventjj
                0x00000000       0x18 922/GAINClass.o
 .text._ZN9GAINClass19setSafetyRelayStateEb
                0x00000000       0x18 922/GAINClass.o
 .text._ZNK9GAINClass25stateIsCateringCycleStateEh
                0x00000000        0xc 922/GAINClass.o
 .text._ZNK9GAINClass16stateShallResumeEh
                0x00000000        0xc 922/GAINClass.o
 .text._ZNK9GAINClass19getSteamSensorStateEv
                0x00000000       0x1a 922/GAINClass.o
 .text._Z26calculateTemperaturePt1000i
                0x00000000       0xd6 922/GAINClass.o
 .text._Z17updateTemperatureaiRfS_b
                0x00000000       0xce 922/GAINClass.o
 .text          0x00000000        0x0 922/version.o
 .data          0x00000000        0x0 922/version.o
 .bss           0x00000000        0x0 922/version.o
 .text.getVersionAsString
                0x00000000        0xa 922/version.o
 .text.getRevisionAsString
                0x00000000        0xa 922/version.o
 .text.getTargetAsString
                0x00000000        0xa 922/version.o
 .text.getBuildDateAsString
                0x00000000        0x6 922/version.o
 .text.getBuildTimeAsString
                0x00000000        0x6 922/version.o
 .data.targetString
                0x00000000        0x2 922/version.o
 .data.revisionString
                0x00000000        0x2 922/version.o
 .rodata.revision
                0x00000000        0x2 922/version.o
 .text          0x00000000        0x0 Application/eDevice.o
 .data          0x00000000        0x0 Application/eDevice.o
 .bss           0x00000000        0x0 Application/eDevice.o
 .text._Znwj    0x00000000        0x6 Application/eDevice.o
 .text._ZN7eDeviceC2Ev
                0x00000000        0x2 Application/eDevice.o
 .text._ZN7eDevice7i2cReadEhPvil
                0x00000000       0x22 Application/eDevice.o
 .text._ZN7eDevice8i2cWriteEhPKvil
                0x00000000       0x22 Application/eDevice.o
 .bss._ZN7eDevice3adcE
                0x00000000        0x1 Application/eDevice.o
 .text          0x00000000        0x0 Application/eDeviceADC.o
 .data          0x00000000        0x0 Application/eDeviceADC.o
 .bss           0x00000000        0x0 Application/eDeviceADC.o
 .debug_info    0x00000000       0x4f Application/eDeviceADC.o
 .debug_abbrev  0x00000000       0x26 Application/eDeviceADC.o
 .debug_aranges
                0x00000000       0x18 Application/eDeviceADC.o
 .debug_line    0x00000000       0x1a Application/eDeviceADC.o
 .debug_str     0x00000000      0x183 Application/eDeviceADC.o
 .comment       0x00000000       0x31 Application/eDeviceADC.o
 .text          0x00000000        0x0 Application/eDeviceDigitalIO.o
 .data          0x00000000        0x0 Application/eDeviceDigitalIO.o
 .bss           0x00000000        0x0 Application/eDeviceDigitalIO.o
 .text          0x00000000        0x0 Application/eDeviceEvent.o
 .data          0x00000000        0x0 Application/eDeviceEvent.o
 .bss           0x00000000        0x0 Application/eDeviceEvent.o
 .bss.eventEvalCollisions
                0x00000000        0x2 Application/eDeviceEvent.o
 .bss.eventCollisions
                0x00000000        0x2 Application/eDeviceEvent.o
 .bss.eventsInUsePeak
                0x00000000        0x1 Application/eDeviceEvent.o
 .rodata.sizeOfEventQueue
                0x00000000        0x2 Application/eDeviceEvent.o
 .text          0x00000000        0x0 Application/eDeviceNVM.o
 .data          0x00000000        0x0 Application/eDeviceNVM.o
 .bss           0x00000000        0x0 Application/eDeviceNVM.o
 .text          0x00000000        0x0 Application/eDevicePWM.o
 .data          0x00000000        0x0 Application/eDevicePWM.o
 .bss           0x00000000        0x0 Application/eDevicePWM.o
 .group         0x00000000        0xc Application/eDeviceSerialStream.o
 .group         0x00000000        0x8 Application/eDeviceSerialStream.o
 .text          0x00000000        0x0 Application/eDeviceSerialStream.o
 .data          0x00000000        0x0 Application/eDeviceSerialStream.o
 .bss           0x00000000        0x0 Application/eDeviceSerialStream.o
 .text._ZN12serialStream4openElhhb
                0x00000000       0x1a Application/eDeviceSerialStream.o
 .text._ZN12serialStream5closeEv
                0x00000000       0x12 Application/eDeviceSerialStream.o
 .group         0x00000000        0x8 Application/eDeviceStream.o
 .text          0x00000000        0x0 Application/eDeviceStream.o
 .data          0x00000000        0x0 Application/eDeviceStream.o
 .bss           0x00000000        0x0 Application/eDeviceStream.o
 .text._ZN6streamD0Ev
                0x00000000        0x6 Application/eDeviceStream.o
 .text._ZN6stream5writeEc
                0x00000000       0x2c Application/eDeviceStream.o
 .text._ZN6stream6writePEPKc
                0x00000000       0x78 Application/eDeviceStream.o
 .text._ZN6stream5writeEPKc
                0x00000000       0x6a Application/eDeviceStream.o
 .rodata.str1.1
                0x00000000       0x2b Application/eDeviceStream.o
 .text._ZN6stream9writeAddrEPv
                0x00000000       0x6a Application/eDeviceStream.o
 .text._ZN6stream5writeEh
                0x00000000       0xd6 Application/eDeviceStream.o
 .text._ZN6stream5writeEj
                0x00000000       0xde Application/eDeviceStream.o
 .text._ZN6stream5writeEm
                0x00000000       0xf4 Application/eDeviceStream.o
 .text._ZN6stream5writeEa
                0x00000000       0xe8 Application/eDeviceStream.o
 .text._ZN6stream5writeEi
                0x00000000       0xde Application/eDeviceStream.o
 .text._ZN6stream5writeEl
                0x00000000       0xf4 Application/eDeviceStream.o
 .text._ZN6stream5writeEf
                0x00000000      0x10a Application/eDeviceStream.o
 .text._ZN6stream4readEPci
                0x00000000       0xa2 Application/eDeviceStream.o
 .text._ZN6stream12str2unsignedEPKcRm
                0x00000000       0x90 Application/eDeviceStream.o
 .text._ZN6stream4readERh
                0x00000000       0x5e Application/eDeviceStream.o
 .text._ZN6stream4readERj
                0x00000000       0x62 Application/eDeviceStream.o
 .text._ZN6stream4readERm
                0x00000000       0x54 Application/eDeviceStream.o
 .text._ZN6stream10str2signedEPKcRl
                0x00000000       0x76 Application/eDeviceStream.o
 .text._ZN6stream4readERa
                0x00000000       0x5e Application/eDeviceStream.o
 .text._ZN6stream4readERi
                0x00000000       0x62 Application/eDeviceStream.o
 .text._ZN6stream4readERl
                0x00000000       0x54 Application/eDeviceStream.o
 .text._ZN6stream11time2stringEaaai
                0x00000000       0xf0 Application/eDeviceStream.o
 .text._ZN6stream11time2stringElh
                0x00000000       0x9e Application/eDeviceStream.o
 .text._ZN6stream16time2stringShortEj
                0x00000000       0x9e Application/eDeviceStream.o
 .data._ZL15shorttimestring
                0x00000000        0x6 Application/eDeviceStream.o
 .data._ZL10timestring
                0x00000000        0xd Application/eDeviceStream.o
 .text          0x00000000        0x0 Common/ConfigurationData.o
 .data          0x00000000        0x0 Common/ConfigurationData.o
 .bss           0x00000000        0x0 Common/ConfigurationData.o
 .text          0x00000000        0x0 Common/GAINDefinitions.o
 .data          0x00000000        0x0 Common/GAINDefinitions.o
 .bss           0x00000000        0x0 Common/GAINDefinitions.o
 .debug_info    0x00000000       0x48 Common/GAINDefinitions.o
 .debug_abbrev  0x00000000       0x26 Common/GAINDefinitions.o
 .debug_aranges
                0x00000000       0x18 Common/GAINDefinitions.o
 .debug_line    0x00000000       0x1a Common/GAINDefinitions.o
 .debug_str     0x00000000      0x17e Common/GAINDefinitions.o
 .comment       0x00000000       0x31 Common/GAINDefinitions.o
 .text          0x00000000        0x0 Common/MaintenanceTool.o
 .data          0x00000000        0x0 Common/MaintenanceTool.o
 .bss           0x00000000        0x0 Common/MaintenanceTool.o
 .text._ZN15MaintenanceTool12setConnectedEb
                0x00000000       0x22 Common/MaintenanceTool.o
 .text._ZN15MaintenanceTool37handleGAINCommandSetNotificationStateER6streamR17GAINMessageHeader
                0x00000000       0x16 Common/MaintenanceTool.o
 .text._ZN15MaintenanceTool22handleGAINCommandResetER6streamR17GAINMessageHeader
                0x00000000        0x8 Common/MaintenanceTool.o
 .text._ZN15MaintenanceTool35handleGAINCommandSetCycleDictionaryER6streamR17GAINMessageHeader
                0x00000000        0x4 Common/MaintenanceTool.o
 .text._ZN15MaintenanceTool30handleGAINQueryCycleDictionaryER6streamR17GAINMessageHeader
                0x00000000        0x4 Common/MaintenanceTool.o
 .text._ZN15MaintenanceTool31handleGAINQueryCycleDescriptionER6streamR17GAINMessageHeader
                0x00000000        0x4 Common/MaintenanceTool.o
 .text          0x00000000        0x0 Common/PersistenceServices.o
 .data          0x00000000        0x0 Common/PersistenceServices.o
 .bss           0x00000000        0x0 Common/PersistenceServices.o
 .text._ZN19PersistenceServicesC2Ev
                0x00000000        0x6 Common/PersistenceServices.o
 .text._ZNK19PersistenceServices13getErrorCountEv
                0x00000000        0x6 Common/PersistenceServices.o
 .text._ZN19PersistenceServices15getErrorCounterEPm
                0x00000000        0x4 Common/PersistenceServices.o
 .text._ZNK19PersistenceServices20getCurrentErrorIndexEv
                0x00000000        0x6 Common/PersistenceServices.o
 .text._ZN19PersistenceServices8getErrorEiR13errorLogEntry
                0x00000000        0x4 Common/PersistenceServices.o
 .text._ZN19PersistenceServices14clearUsageTimeEh
                0x00000000       0x60 Common/PersistenceServices.o
 .text._ZNK19PersistenceServices15getUsageCounterEh
                0x00000000       0x60 Common/PersistenceServices.o
 .text._ZN19PersistenceServices17clearUsageCounterEh
                0x00000000       0x60 Common/PersistenceServices.o
 .rodata.FRAMProxy
                0x00000000        0x2 Common/PersistenceServices.o
 .rodata.EEPROMProxy
                0x00000000        0x2 Common/PersistenceServices.o
 .rodata.InternalEEPROMProxy
                0x00000000        0x2 Common/PersistenceServices.o
 .rodata.validMagic
                0x00000000        0x4 Common/PersistenceServices.o
 .text          0x00000000        0x0 ControlPanel/ControlPanel.o
 .data          0x00000000        0x0 ControlPanel/ControlPanel.o
 .bss           0x00000000        0x0 ControlPanel/ControlPanel.o
 .text._ZN12ControlPanel21syncWithCateringStateEhh
                0x00000000       0x5a ControlPanel/ControlPanel.o
 .text._ZN12ControlPanel27syncWithNextMaintenanceTimeEih
                0x00000000       0x60 ControlPanel/ControlPanel.o
 .text          0x00000000        0x0 Core/coreADConverter.o
 .data          0x00000000        0x0 Core/coreADConverter.o
 .bss           0x00000000        0x0 Core/coreADConverter.o
 .text.coreADConverterRelease
                0x00000000        0xe Core/coreADConverter.o
 .text.coreADConverterIsAutoTriggerEnabled
                0x00000000        0xe Core/coreADConverter.o
 .text.coreADConverterReadSingle
                0x00000000       0x8e Core/coreADConverter.o
 .text.coreADConverterReadAutoTriggerArray
                0x00000000       0x42 Core/coreADConverter.o
 .text.coreADConverterReadArray
                0x00000000       0x82 Core/coreADConverter.o
 .text.coreADConverterGetResolution
                0x00000000        0x8 Core/coreADConverter.o
 .text.coreADConverterGetMaximumValue
                0x00000000       0x18 Core/coreADConverter.o
 .text          0x00000000        0x0 Core/coreAsyncSerial.o
 .data          0x00000000        0x0 Core/coreAsyncSerial.o
 .bss           0x00000000        0x0 Core/coreAsyncSerial.o
 .text.coreAsyncSerialClose
                0x00000000       0x10 Core/coreAsyncSerial.o
 .text.coreAsyncSerialFlush
                0x00000000        0x2 Core/coreAsyncSerial.o
 .text.coreAsyncSerialPeekNext
                0x00000000       0x16 Core/coreAsyncSerial.o
 .text.coreAsyncSerialWriteString
                0x00000000       0x26 Core/coreAsyncSerial.o
 .text          0x00000000        0x0 Core/coreCAN.o
 .data          0x00000000        0x0 Core/coreCAN.o
 .bss           0x00000000        0x0 Core/coreCAN.o
 .text.coreCANClose
                0x00000000       0x1a Core/coreCAN.o
 .text.coreCANAddMessageFilter
                0x00000000       0xf6 Core/coreCAN.o
 .text.coreCANResetMessageFilters
                0x00000000       0x42 Core/coreCAN.o
 .text.coreCANGetBusState
                0x00000000        0xe Core/coreCAN.o
 .text.coreCANDataOverflow
                0x00000000        0xa Core/coreCAN.o
 .text          0x00000000        0x0 Core/coreController.o
 .data          0x00000000        0x0 Core/coreController.o
 .bss           0x00000000        0x0 Core/coreController.o
 .text.coreControllerDisableInterrupts
                0x00000000        0x4 Core/coreController.o
 .text.coreControllerRelease
                0x00000000        0x8 Core/coreController.o
 .text.coreControllerGetWatchdogState
                0x00000000        0x6 Core/coreController.o
 .text.coreControllerSetWatchdogState
                0x00000000       0x10 Core/coreController.o
 .bss.app_start
                0x00000000        0x2 Core/coreController.o
 .text          0x00000000        0x0 Core/coreI2C.o
 .data          0x00000000        0x0 Core/coreI2C.o
 .bss           0x00000000        0x0 Core/coreI2C.o
 .text.coreI2CClose
                0x00000000        0xe Core/coreI2C.o
 .text.coreI2CSetLocalDeviceAddress
                0x00000000       0x12 Core/coreI2C.o
 .text.coreI2CSetSlaveReceiveHandler
                0x00000000        0xa Core/coreI2C.o
 .text.coreI2CSetSlaveTransmitHandler
                0x00000000        0xa Core/coreI2C.o
 .text.coreI2CMasterSendToRegister
                0x00000000       0x86 Core/coreI2C.o
 .text.coreI2CWriteToRegister
                0x00000000       0x14 Core/coreI2C.o
 .text.coreI2CGetState
                0x00000000        0x6 Core/coreI2C.o
 .text          0x00000000        0x0 Core/coreNVM.o
 .data          0x00000000        0x0 Core/coreNVM.o
 .bss           0x00000000        0x0 Core/coreNVM.o
 .text.coreNVMGetNVMCapacity
                0x00000000       0x26 Core/coreNVM.o
 .rodata.nvmCapacities
                0x00000000        0xc Core/coreNVM.o
 .text          0x00000000        0x0 Core/corePorts.o
 .data          0x00000000        0x0 Core/corePorts.o
 .bss           0x00000000        0x0 Core/corePorts.o
 .text.corePortsGetDirection
                0x00000000       0x16 Core/corePorts.o
 .text.corePortsGetPortMasked
                0x00000000       0x44 Core/corePorts.o
 .text.corePortsSetPortMasked
                0x00000000       0x32 Core/corePorts.o
 .text.corePortsORPort
                0x00000000       0x1a Core/corePorts.o
 .text.corePortsORPortMasked
                0x00000000       0x1c Core/corePorts.o
 .text.corePortsANDPort
                0x00000000       0x1a Core/corePorts.o
 .text.corePortsANDPortMasked
                0x00000000       0x26 Core/corePorts.o
 .text.corePortsXORPort
                0x00000000       0x1a Core/corePorts.o
 .text.corePortsXORPortMasked
                0x00000000       0x22 Core/corePorts.o
 .text.corePortsTogglePortPin
                0x00000000       0x4c Core/corePorts.o
 .text.corePortsGetPortBit
                0x00000000       0x50 Core/corePorts.o
 .text.corePortsTogglePortBit
                0x00000000       0x30 Core/corePorts.o
 .text          0x00000000        0x0 Core/corePWM.o
 .data          0x00000000        0x0 Core/corePWM.o
 .bss           0x00000000        0x0 Core/corePWM.o
 .text          0x00000000        0x0 Core/coreRTC.o
 .data          0x00000000        0x0 Core/coreRTC.o
 .bss           0x00000000        0x0 Core/coreRTC.o
 .text.coreRTCEnableTimer
                0x00000000       0xba Core/coreRTC.o
 .text.coreRTCEnableTimerWithValue
                0x00000000       0xd8 Core/coreRTC.o
 .text.coreRTCDisableTimer
                0x00000000       0x7c Core/coreRTC.o
 .text.coreRTCSetTimerValue
                0x00000000       0x54 Core/coreRTC.o
 .text.coreRTCGetTimerValue
                0x00000000       0x58 Core/coreRTC.o
 .text.coreRTCEnableTemperature
                0x00000000       0x7a Core/coreRTC.o
 .text.coreRTCDisableTemperature
                0x00000000       0x78 Core/coreRTC.o
 .text.coreRTCGetTemperatureValue
                0x00000000       0x54 Core/coreRTC.o
 .text.coreRTCReadRegister
                0x00000000       0x3c Core/coreRTC.o
 .text.coreRTCWriteRegister
                0x00000000       0x3c Core/coreRTC.o
 .text          0x00000000        0x0 Core/coreScheduler.o
 .data          0x00000000        0x0 Core/coreScheduler.o
 .bss           0x00000000        0x0 Core/coreScheduler.o
 .text.coreSchedulerTimerHandler
                0x00000000        0x2 Core/coreScheduler.o
 .text.idleThread
                0x00000000       0x10 Core/coreScheduler.o
 .text.coreSchedulerInitialize
                0x00000000       0x16 Core/coreScheduler.o
 .text.coreSchedulerYield
                0x00000000        0x2 Core/coreScheduler.o
 .text.coreSchedulerWait
                0x00000000        0x2 Core/coreScheduler.o
 .debug_info    0x00000000      0x2b7 Core/coreScheduler.o
 .debug_abbrev  0x00000000      0x14e Core/coreScheduler.o
 .debug_aranges
                0x00000000       0x40 Core/coreScheduler.o
 .debug_ranges  0x00000000       0x30 Core/coreScheduler.o
 .debug_line    0x00000000      0x134 Core/coreScheduler.o
 .debug_str     0x00000000      0x2d3 Core/coreScheduler.o
 .comment       0x00000000       0x31 Core/coreScheduler.o
 .debug_frame   0x00000000       0x64 Core/coreScheduler.o
 .text          0x00000000        0x0 Core/coreSPI.o
 .data          0x00000000        0x0 Core/coreSPI.o
 .bss           0x00000000        0x0 Core/coreSPI.o
 .text.coreSPIReadByte
                0x00000000       0x22 Core/coreSPI.o
 .text          0x00000000        0x0 Core/coreSystemTimer.o
 .data          0x00000000        0x0 Core/coreSystemTimer.o
 .bss           0x00000000        0x0 Core/coreSystemTimer.o
 .text.coreSystemTimerSeconds
                0x00000000       0x20 Core/coreSystemTimer.o
 .text          0x00000000        0x0 Core/eCore.o
 .data          0x00000000        0x0 Core/eCore.o
 .bss           0x00000000        0x0 Core/eCore.o
 .text          0x00000000        0x0 main.o
 .data          0x00000000        0x0 main.o
 .bss           0x00000000        0x0 main.o
 .text          0x00000000        0x0 Network/coreNSDDiagnostics.o
 .data          0x00000000        0x0 Network/coreNSDDiagnostics.o
 .bss           0x00000000        0x0 Network/coreNSDDiagnostics.o
 .text          0x00000000        0x0 Network/coreNSDStack.o
 .data          0x00000000        0x0 Network/coreNSDStack.o
 .bss           0x00000000        0x0 Network/coreNSDStack.o
 .text.coreNSD_handlePeriodicTask
                0x00000000        0x2 Network/coreNSDStack.o
 .text.coreNSD_sendNSDMessage
                0x00000000        0x2 Network/coreNSDStack.o
 .text.coreNSD_copyGAINConfigurationDataBlock
                0x00000000       0x52 Network/coreNSDStack.o
 .text.coreNSD_convertToBigEndian16
                0x00000000        0x8 Network/coreNSDStack.o
 .text.coreNSD_setMGCUMessageIdentifier
                0x00000000       0x24 Network/coreNSDStack.o
 .text.coreNSD_setCANMessage
                0x00000000       0x7c Network/coreNSDStack.o
 .text.coreNSD_checkAndSetCANMessage
                0x00000000       0x9a Network/coreNSDStack.o
 .text.coreNSD_getGAINMode
                0x00000000       0x22 Network/coreNSDStack.o
 .text.coreNSD_getGAINState
                0x00000000       0x10 Network/coreNSDStack.o
 .text.coreNSD_getGAINFallback_Power_Budget
                0x00000000       0x16 Network/coreNSDStack.o
 .text.coreNSD_getGAINImpl_Functionalities
                0x00000000       0x10 Network/coreNSDStack.o
 .text.coreNSD_getGAINFeeder_ID
                0x00000000       0x10 Network/coreNSDStack.o
 .text.coreNSD_getGAINPTStandbyPowerThreshold
                0x00000000       0x1e Network/coreNSDStack.o
 .text.coreNSD_getGAINPTMaximumPowerThreshold
                0x00000000       0x16 Network/coreNSDStack.o
 .text.coreNSD_getGAINPTMinimumPowerThreshold
                0x00000000       0x16 Network/coreNSDStack.o
 .text.coreNSD_getGAINPTFallbackPowerThreshold
                0x00000000       0x16 Network/coreNSDStack.o
 .text.coreNSD_getPBRNominalPowerBudget
                0x00000000       0x16 Network/coreNSDStack.o
 .text.coreNSD_getPBRNeededTimeWithNominalPB
                0x00000000       0x20 Network/coreNSDStack.o
 .text.coreNSD_getPBRNeededTimeWithMinimalPB
                0x00000000       0x20 Network/coreNSDStack.o
 .text.coreNSD_getMGCUState
                0x00000000       0x22 Network/coreNSDStack.o
 .text.coreNSD_initializeGAINStatusMessage
                0x00000000       0x26 Network/coreNSDStack.o
 .text.coreNSD_setMGCUState
                0x00000000       0x12 Network/coreNSDStack.o
 .text.coreNSD_setMGCUImplemented_Functionalities
                0x00000000       0x12 Network/coreNSDStack.o
 .text.coreNSD_setMGCUPower_Info_Feeder
                0x00000000       0x12 Network/coreNSDStack.o
 .text.coreNSD_setPBMPowerBudgetMax
                0x00000000       0x2c Network/coreNSDStack.o
 .text.coreNSD_setPBMTime
                0x00000000       0x30 Network/coreNSDStack.o
 .text.coreNSD_setMGCUDisinfection_Mode
                0x00000000        0xc Network/coreNSDStack.o
 .text.coreNSD_setMGCUCentral_Power_Valid_On_Feeder
                0x00000000        0xc Network/coreNSDStack.o
 .text.coreNSD_getCANMessagePayloadData
                0x00000000       0x2a Network/coreNSDStack.o
 .text.coreNSD_getGAINGAIN_Is_Primary
                0x00000000        0xa Network/coreNSDStack.o
 .text.coreNSD_getGAINMGCU_Is_Present
                0x00000000        0xa Network/coreNSDStack.o
 .text.coreNSD_getPBRPowerBudgetType
                0x00000000        0xa Network/coreNSDStack.o
 .text.coreNSD_getLCC
                0x00000000       0x1a Network/coreNSDStack.o
 .text.coreNSD_getSourceFID
                0x00000000       0x1a Network/coreNSDStack.o
 .text.coreNSD_getLCL
                0x00000000       0x1a Network/coreNSDStack.o
 .text.coreNSD_getDeviceID
                0x00000000       0x18 Network/coreNSDStack.o
 .text.coreNSD_getRCI
                0x00000000        0x6 Network/coreNSDStack.o
 .text.coreNSD_setLCC
                0x00000000       0x46 Network/coreNSDStack.o
 .text.coreNSD_setSourceFID
                0x00000000       0x48 Network/coreNSDStack.o
 .text.coreNSD_setRSD
                0x00000000       0x46 Network/coreNSDStack.o
 .text.coreNSD_setLCL
                0x00000000       0x46 Network/coreNSDStack.o
 .text.coreNSD_setPVT
                0x00000000       0x3a Network/coreNSDStack.o
 .text.coreNSD_setMessageCode
                0x00000000       0x48 Network/coreNSDStack.o
 .text.coreNSD_setRCI
                0x00000000       0x20 Network/coreNSDStack.o
 .rodata.MGCUMessageLookup
                0x00000000       0x1c Network/coreNSDStack.o
 .rodata.defaultDataBlock04
                0x00000000       0x10 Network/coreNSDStack.o
 .rodata.defaultDataBlock03
                0x00000000        0x4 Network/coreNSDStack.o
 .text          0x00000000        0x0 Network/NSDHandler.o
 .data          0x00000000        0x0 Network/NSDHandler.o
 .bss           0x00000000        0x0 Network/NSDHandler.o
 .text._ZN10NSDHandler26setGAINFallbackPowerBudgetEjb
                0x00000000        0x8 Network/NSDHandler.o
 .text._ZN10NSDHandler15setPHSMValueRECEh
                0x00000000        0xa Network/NSDHandler.o
 .text._ZN10NSDHandler15setPHSMValueTECEh
                0x00000000        0xa Network/NSDHandler.o
 .text._ZN10NSDHandler14syncGAINStatusEv
                0x00000000        0x8 Network/NSDHandler.o
 .text          0x00000000        0x0 Network/NSDMessage.o
 .data          0x00000000        0x0 Network/NSDMessage.o
 .bss           0x00000000        0x0 Network/NSDMessage.o
 .text._ZN10NSDMessage14setMessageCodeEh
                0x00000000        0x6 Network/NSDMessage.o
 .text._ZN10NSDMessage6setRCIEh
                0x00000000        0x6 Network/NSDMessage.o
 .text          0x00000000        0x0 PinCoding/PinCoding.o
 .data          0x00000000        0x0 PinCoding/PinCoding.o
 .bss           0x00000000        0x0 PinCoding/PinCoding.o
 .text._ZN9PinCoding22setPhaseCheckDelayTimeEl
                0x00000000       0x30 PinCoding/PinCoding.o
 .text          0x00000000        0x0 c:/program files (x86)/atmel/studio/7.0/toolchain/avr8/avr8-gnu-toolchain/bin/../lib/gcc/avr/5.4.0/../../../../avr/lib/avr51\libm.a(addsf3.o)
 .data          0x00000000        0x0 c:/program files (x86)/atmel/studio/7.0/toolchain/avr8/avr8-gnu-toolchain/bin/../lib/gcc/avr/5.4.0/../../../../avr/lib/avr51\libm.a(addsf3.o)
 .bss           0x00000000        0x0 c:/program files (x86)/atmel/studio/7.0/toolchain/avr8/avr8-gnu-toolchain/bin/../lib/gcc/avr/5.4.0/../../../../avr/lib/avr51\libm.a(addsf3.o)
 .text          0x00000000        0x0 c:/program files (x86)/atmel/studio/7.0/toolchain/avr8/avr8-gnu-toolchain/bin/../lib/gcc/avr/5.4.0/../../../../avr/lib/avr51\libm.a(addsf3x.o)
 .data          0x00000000        0x0 c:/program files (x86)/atmel/studio/7.0/toolchain/avr8/avr8-gnu-toolchain/bin/../lib/gcc/avr/5.4.0/../../../../avr/lib/avr51\libm.a(addsf3x.o)
 .bss           0x00000000        0x0 c:/program files (x86)/atmel/studio/7.0/toolchain/avr8/avr8-gnu-toolchain/bin/../lib/gcc/avr/5.4.0/../../../../avr/lib/avr51\libm.a(addsf3x.o)
 .text          0x00000000        0x0 c:/program files (x86)/atmel/studio/7.0/toolchain/avr8/avr8-gnu-toolchain/bin/../lib/gcc/avr/5.4.0/../../../../avr/lib/avr51\libm.a(cmpsf2.o)
 .data          0x00000000        0x0 c:/program files (x86)/atmel/studio/7.0/toolchain/avr8/avr8-gnu-toolchain/bin/../lib/gcc/avr/5.4.0/../../../../avr/lib/avr51\libm.a(cmpsf2.o)
 .bss           0x00000000        0x0 c:/program files (x86)/atmel/studio/7.0/toolchain/avr8/avr8-gnu-toolchain/bin/../lib/gcc/avr/5.4.0/../../../../avr/lib/avr51\libm.a(cmpsf2.o)
 .text          0x00000000        0x0 c:/program files (x86)/atmel/studio/7.0/toolchain/avr8/avr8-gnu-toolchain/bin/../lib/gcc/avr/5.4.0/../../../../avr/lib/avr51\libm.a(divsf3.o)
 .data          0x00000000        0x0 c:/program files (x86)/atmel/studio/7.0/toolchain/avr8/avr8-gnu-toolchain/bin/../lib/gcc/avr/5.4.0/../../../../avr/lib/avr51\libm.a(divsf3.o)
 .bss           0x00000000        0x0 c:/program files (x86)/atmel/studio/7.0/toolchain/avr8/avr8-gnu-toolchain/bin/../lib/gcc/avr/5.4.0/../../../../avr/lib/avr51\libm.a(divsf3.o)
 .text          0x00000000        0x0 c:/program files (x86)/atmel/studio/7.0/toolchain/avr8/avr8-gnu-toolchain/bin/../lib/gcc/avr/5.4.0/../../../../avr/lib/avr51\libm.a(divsf3x.o)
 .data          0x00000000        0x0 c:/program files (x86)/atmel/studio/7.0/toolchain/avr8/avr8-gnu-toolchain/bin/../lib/gcc/avr/5.4.0/../../../../avr/lib/avr51\libm.a(divsf3x.o)
 .bss           0x00000000        0x0 c:/program files (x86)/atmel/studio/7.0/toolchain/avr8/avr8-gnu-toolchain/bin/../lib/gcc/avr/5.4.0/../../../../avr/lib/avr51\libm.a(divsf3x.o)
 .text          0x00000000        0x0 c:/program files (x86)/atmel/studio/7.0/toolchain/avr8/avr8-gnu-toolchain/bin/../lib/gcc/avr/5.4.0/../../../../avr/lib/avr51\libm.a(exp.o)
 .data          0x00000000        0x0 c:/program files (x86)/atmel/studio/7.0/toolchain/avr8/avr8-gnu-toolchain/bin/../lib/gcc/avr/5.4.0/../../../../avr/lib/avr51\libm.a(exp.o)
 .bss           0x00000000        0x0 c:/program files (x86)/atmel/studio/7.0/toolchain/avr8/avr8-gnu-toolchain/bin/../lib/gcc/avr/5.4.0/../../../../avr/lib/avr51\libm.a(exp.o)
 .text          0x00000000        0x0 c:/program files (x86)/atmel/studio/7.0/toolchain/avr8/avr8-gnu-toolchain/bin/../lib/gcc/avr/5.4.0/../../../../avr/lib/avr51\libm.a(fixsfsi.o)
 .data          0x00000000        0x0 c:/program files (x86)/atmel/studio/7.0/toolchain/avr8/avr8-gnu-toolchain/bin/../lib/gcc/avr/5.4.0/../../../../avr/lib/avr51\libm.a(fixsfsi.o)
 .bss           0x00000000        0x0 c:/program files (x86)/atmel/studio/7.0/toolchain/avr8/avr8-gnu-toolchain/bin/../lib/gcc/avr/5.4.0/../../../../avr/lib/avr51\libm.a(fixsfsi.o)
 .text          0x00000000        0x0 c:/program files (x86)/atmel/studio/7.0/toolchain/avr8/avr8-gnu-toolchain/bin/../lib/gcc/avr/5.4.0/../../../../avr/lib/avr51\libm.a(fixunssfsi.o)
 .data          0x00000000        0x0 c:/program files (x86)/atmel/studio/7.0/toolchain/avr8/avr8-gnu-toolchain/bin/../lib/gcc/avr/5.4.0/../../../../avr/lib/avr51\libm.a(fixunssfsi.o)
 .bss           0x00000000        0x0 c:/program files (x86)/atmel/studio/7.0/toolchain/avr8/avr8-gnu-toolchain/bin/../lib/gcc/avr/5.4.0/../../../../avr/lib/avr51\libm.a(fixunssfsi.o)
 .text          0x00000000        0x0 c:/program files (x86)/atmel/studio/7.0/toolchain/avr8/avr8-gnu-toolchain/bin/../lib/gcc/avr/5.4.0/../../../../avr/lib/avr51\libm.a(floatsisf.o)
 .data          0x00000000        0x0 c:/program files (x86)/atmel/studio/7.0/toolchain/avr8/avr8-gnu-toolchain/bin/../lib/gcc/avr/5.4.0/../../../../avr/lib/avr51\libm.a(floatsisf.o)
 .bss           0x00000000        0x0 c:/program files (x86)/atmel/studio/7.0/toolchain/avr8/avr8-gnu-toolchain/bin/../lib/gcc/avr/5.4.0/../../../../avr/lib/avr51\libm.a(floatsisf.o)
 .text          0x00000000        0x0 c:/program files (x86)/atmel/studio/7.0/toolchain/avr8/avr8-gnu-toolchain/bin/../lib/gcc/avr/5.4.0/../../../../avr/lib/avr51\libm.a(fmod.o)
 .data          0x00000000        0x0 c:/program files (x86)/atmel/studio/7.0/toolchain/avr8/avr8-gnu-toolchain/bin/../lib/gcc/avr/5.4.0/../../../../avr/lib/avr51\libm.a(fmod.o)
 .bss           0x00000000        0x0 c:/program files (x86)/atmel/studio/7.0/toolchain/avr8/avr8-gnu-toolchain/bin/../lib/gcc/avr/5.4.0/../../../../avr/lib/avr51\libm.a(fmod.o)
 .text.avr-libc.fplib
                0x00000000       0xa8 c:/program files (x86)/atmel/studio/7.0/toolchain/avr8/avr8-gnu-toolchain/bin/../lib/gcc/avr/5.4.0/../../../../avr/lib/avr51\libm.a(fmod.o)
 .text          0x00000000        0x0 c:/program files (x86)/atmel/studio/7.0/toolchain/avr8/avr8-gnu-toolchain/bin/../lib/gcc/avr/5.4.0/../../../../avr/lib/avr51\libm.a(fp_cmp.o)
 .data          0x00000000        0x0 c:/program files (x86)/atmel/studio/7.0/toolchain/avr8/avr8-gnu-toolchain/bin/../lib/gcc/avr/5.4.0/../../../../avr/lib/avr51\libm.a(fp_cmp.o)
 .bss           0x00000000        0x0 c:/program files (x86)/atmel/studio/7.0/toolchain/avr8/avr8-gnu-toolchain/bin/../lib/gcc/avr/5.4.0/../../../../avr/lib/avr51\libm.a(fp_cmp.o)
 .text          0x00000000        0x0 c:/program files (x86)/atmel/studio/7.0/toolchain/avr8/avr8-gnu-toolchain/bin/../lib/gcc/avr/5.4.0/../../../../avr/lib/avr51\libm.a(fp_inf.o)
 .data          0x00000000        0x0 c:/program files (x86)/atmel/studio/7.0/toolchain/avr8/avr8-gnu-toolchain/bin/../lib/gcc/avr/5.4.0/../../../../avr/lib/avr51\libm.a(fp_inf.o)
 .bss           0x00000000        0x0 c:/program files (x86)/atmel/studio/7.0/toolchain/avr8/avr8-gnu-toolchain/bin/../lib/gcc/avr/5.4.0/../../../../avr/lib/avr51\libm.a(fp_inf.o)
 .text          0x00000000        0x0 c:/program files (x86)/atmel/studio/7.0/toolchain/avr8/avr8-gnu-toolchain/bin/../lib/gcc/avr/5.4.0/../../../../avr/lib/avr51\libm.a(fp_mpack.o)
 .data          0x00000000        0x0 c:/program files (x86)/atmel/studio/7.0/toolchain/avr8/avr8-gnu-toolchain/bin/../lib/gcc/avr/5.4.0/../../../../avr/lib/avr51\libm.a(fp_mpack.o)
 .bss           0x00000000        0x0 c:/program files (x86)/atmel/studio/7.0/toolchain/avr8/avr8-gnu-toolchain/bin/../lib/gcc/avr/5.4.0/../../../../avr/lib/avr51\libm.a(fp_mpack.o)
 .text          0x00000000        0x0 c:/program files (x86)/atmel/studio/7.0/toolchain/avr8/avr8-gnu-toolchain/bin/../lib/gcc/avr/5.4.0/../../../../avr/lib/avr51\libm.a(fp_nan.o)
 .data          0x00000000        0x0 c:/program files (x86)/atmel/studio/7.0/toolchain/avr8/avr8-gnu-toolchain/bin/../lib/gcc/avr/5.4.0/../../../../avr/lib/avr51\libm.a(fp_nan.o)
 .bss           0x00000000        0x0 c:/program files (x86)/atmel/studio/7.0/toolchain/avr8/avr8-gnu-toolchain/bin/../lib/gcc/avr/5.4.0/../../../../avr/lib/avr51\libm.a(fp_nan.o)
 .text          0x00000000        0x0 c:/program files (x86)/atmel/studio/7.0/toolchain/avr8/avr8-gnu-toolchain/bin/../lib/gcc/avr/5.4.0/../../../../avr/lib/avr51\libm.a(fp_powser.o)
 .data          0x00000000        0x0 c:/program files (x86)/atmel/studio/7.0/toolchain/avr8/avr8-gnu-toolchain/bin/../lib/gcc/avr/5.4.0/../../../../avr/lib/avr51\libm.a(fp_powser.o)
 .bss           0x00000000        0x0 c:/program files (x86)/atmel/studio/7.0/toolchain/avr8/avr8-gnu-toolchain/bin/../lib/gcc/avr/5.4.0/../../../../avr/lib/avr51\libm.a(fp_powser.o)
 .text          0x00000000        0x0 c:/program files (x86)/atmel/studio/7.0/toolchain/avr8/avr8-gnu-toolchain/bin/../lib/gcc/avr/5.4.0/../../../../avr/lib/avr51\libm.a(fp_pscA.o)
 .data          0x00000000        0x0 c:/program files (x86)/atmel/studio/7.0/toolchain/avr8/avr8-gnu-toolchain/bin/../lib/gcc/avr/5.4.0/../../../../avr/lib/avr51\libm.a(fp_pscA.o)
 .bss           0x00000000        0x0 c:/program files (x86)/atmel/studio/7.0/toolchain/avr8/avr8-gnu-toolchain/bin/../lib/gcc/avr/5.4.0/../../../../avr/lib/avr51\libm.a(fp_pscA.o)
 .text          0x00000000        0x0 c:/program files (x86)/atmel/studio/7.0/toolchain/avr8/avr8-gnu-toolchain/bin/../lib/gcc/avr/5.4.0/../../../../avr/lib/avr51\libm.a(fp_pscB.o)
 .data          0x00000000        0x0 c:/program files (x86)/atmel/studio/7.0/toolchain/avr8/avr8-gnu-toolchain/bin/../lib/gcc/avr/5.4.0/../../../../avr/lib/avr51\libm.a(fp_pscB.o)
 .bss           0x00000000        0x0 c:/program files (x86)/atmel/studio/7.0/toolchain/avr8/avr8-gnu-toolchain/bin/../lib/gcc/avr/5.4.0/../../../../avr/lib/avr51\libm.a(fp_pscB.o)
 .text          0x00000000        0x0 c:/program files (x86)/atmel/studio/7.0/toolchain/avr8/avr8-gnu-toolchain/bin/../lib/gcc/avr/5.4.0/../../../../avr/lib/avr51\libm.a(fp_round.o)
 .data          0x00000000        0x0 c:/program files (x86)/atmel/studio/7.0/toolchain/avr8/avr8-gnu-toolchain/bin/../lib/gcc/avr/5.4.0/../../../../avr/lib/avr51\libm.a(fp_round.o)
 .bss           0x00000000        0x0 c:/program files (x86)/atmel/studio/7.0/toolchain/avr8/avr8-gnu-toolchain/bin/../lib/gcc/avr/5.4.0/../../../../avr/lib/avr51\libm.a(fp_round.o)
 .text          0x00000000        0x0 c:/program files (x86)/atmel/studio/7.0/toolchain/avr8/avr8-gnu-toolchain/bin/../lib/gcc/avr/5.4.0/../../../../avr/lib/avr51\libm.a(fp_split3.o)
 .data          0x00000000        0x0 c:/program files (x86)/atmel/studio/7.0/toolchain/avr8/avr8-gnu-toolchain/bin/../lib/gcc/avr/5.4.0/../../../../avr/lib/avr51\libm.a(fp_split3.o)
 .bss           0x00000000        0x0 c:/program files (x86)/atmel/studio/7.0/toolchain/avr8/avr8-gnu-toolchain/bin/../lib/gcc/avr/5.4.0/../../../../avr/lib/avr51\libm.a(fp_split3.o)
 .text          0x00000000        0x0 c:/program files (x86)/atmel/studio/7.0/toolchain/avr8/avr8-gnu-toolchain/bin/../lib/gcc/avr/5.4.0/../../../../avr/lib/avr51\libm.a(fp_zero.o)
 .data          0x00000000        0x0 c:/program files (x86)/atmel/studio/7.0/toolchain/avr8/avr8-gnu-toolchain/bin/../lib/gcc/avr/5.4.0/../../../../avr/lib/avr51\libm.a(fp_zero.o)
 .bss           0x00000000        0x0 c:/program files (x86)/atmel/studio/7.0/toolchain/avr8/avr8-gnu-toolchain/bin/../lib/gcc/avr/5.4.0/../../../../avr/lib/avr51\libm.a(fp_zero.o)
 .text          0x00000000        0x0 c:/program files (x86)/atmel/studio/7.0/toolchain/avr8/avr8-gnu-toolchain/bin/../lib/gcc/avr/5.4.0/../../../../avr/lib/avr51\libm.a(gesf2.o)
 .data          0x00000000        0x0 c:/program files (x86)/atmel/studio/7.0/toolchain/avr8/avr8-gnu-toolchain/bin/../lib/gcc/avr/5.4.0/../../../../avr/lib/avr51\libm.a(gesf2.o)
 .bss           0x00000000        0x0 c:/program files (x86)/atmel/studio/7.0/toolchain/avr8/avr8-gnu-toolchain/bin/../lib/gcc/avr/5.4.0/../../../../avr/lib/avr51\libm.a(gesf2.o)
 .text          0x00000000        0x0 c:/program files (x86)/atmel/studio/7.0/toolchain/avr8/avr8-gnu-toolchain/bin/../lib/gcc/avr/5.4.0/../../../../avr/lib/avr51\libm.a(inverse.o)
 .data          0x00000000        0x0 c:/program files (x86)/atmel/studio/7.0/toolchain/avr8/avr8-gnu-toolchain/bin/../lib/gcc/avr/5.4.0/../../../../avr/lib/avr51\libm.a(inverse.o)
 .bss           0x00000000        0x0 c:/program files (x86)/atmel/studio/7.0/toolchain/avr8/avr8-gnu-toolchain/bin/../lib/gcc/avr/5.4.0/../../../../avr/lib/avr51\libm.a(inverse.o)
 .text          0x00000000        0x0 c:/program files (x86)/atmel/studio/7.0/toolchain/avr8/avr8-gnu-toolchain/bin/../lib/gcc/avr/5.4.0/../../../../avr/lib/avr51\libm.a(ldexp.o)
 .data          0x00000000        0x0 c:/program files (x86)/atmel/studio/7.0/toolchain/avr8/avr8-gnu-toolchain/bin/../lib/gcc/avr/5.4.0/../../../../avr/lib/avr51\libm.a(ldexp.o)
 .bss           0x00000000        0x0 c:/program files (x86)/atmel/studio/7.0/toolchain/avr8/avr8-gnu-toolchain/bin/../lib/gcc/avr/5.4.0/../../../../avr/lib/avr51\libm.a(ldexp.o)
 .text          0x00000000        0x0 c:/program files (x86)/atmel/studio/7.0/toolchain/avr8/avr8-gnu-toolchain/bin/../lib/gcc/avr/5.4.0/../../../../avr/lib/avr51\libm.a(log.o)
 .data          0x00000000        0x0 c:/program files (x86)/atmel/studio/7.0/toolchain/avr8/avr8-gnu-toolchain/bin/../lib/gcc/avr/5.4.0/../../../../avr/lib/avr51\libm.a(log.o)
 .bss           0x00000000        0x0 c:/program files (x86)/atmel/studio/7.0/toolchain/avr8/avr8-gnu-toolchain/bin/../lib/gcc/avr/5.4.0/../../../../avr/lib/avr51\libm.a(log.o)
 .text          0x00000000        0x0 c:/program files (x86)/atmel/studio/7.0/toolchain/avr8/avr8-gnu-toolchain/bin/../lib/gcc/avr/5.4.0/../../../../avr/lib/avr51\libm.a(modf.o)
 .data          0x00000000        0x0 c:/program files (x86)/atmel/studio/7.0/toolchain/avr8/avr8-gnu-toolchain/bin/../lib/gcc/avr/5.4.0/../../../../avr/lib/avr51\libm.a(modf.o)
 .bss           0x00000000        0x0 c:/program files (x86)/atmel/studio/7.0/toolchain/avr8/avr8-gnu-toolchain/bin/../lib/gcc/avr/5.4.0/../../../../avr/lib/avr51\libm.a(modf.o)
 .text          0x00000000        0x0 c:/program files (x86)/atmel/studio/7.0/toolchain/avr8/avr8-gnu-toolchain/bin/../lib/gcc/avr/5.4.0/../../../../avr/lib/avr51\libm.a(mulsf3.o)
 .data          0x00000000        0x0 c:/program files (x86)/atmel/studio/7.0/toolchain/avr8/avr8-gnu-toolchain/bin/../lib/gcc/avr/5.4.0/../../../../avr/lib/avr51\libm.a(mulsf3.o)
 .bss           0x00000000        0x0 c:/program files (x86)/atmel/studio/7.0/toolchain/avr8/avr8-gnu-toolchain/bin/../lib/gcc/avr/5.4.0/../../../../avr/lib/avr51\libm.a(mulsf3.o)
 .text          0x00000000        0x0 c:/program files (x86)/atmel/studio/7.0/toolchain/avr8/avr8-gnu-toolchain/bin/../lib/gcc/avr/5.4.0/../../../../avr/lib/avr51\libm.a(mulsf3x.o)
 .data          0x00000000        0x0 c:/program files (x86)/atmel/studio/7.0/toolchain/avr8/avr8-gnu-toolchain/bin/../lib/gcc/avr/5.4.0/../../../../avr/lib/avr51\libm.a(mulsf3x.o)
 .bss           0x00000000        0x0 c:/program files (x86)/atmel/studio/7.0/toolchain/avr8/avr8-gnu-toolchain/bin/../lib/gcc/avr/5.4.0/../../../../avr/lib/avr51\libm.a(mulsf3x.o)
 .text          0x00000000        0x0 c:/program files (x86)/atmel/studio/7.0/toolchain/avr8/avr8-gnu-toolchain/bin/../lib/gcc/avr/5.4.0/avr51\libgcc.a(_divmodhi4.o)
 .data          0x00000000        0x0 c:/program files (x86)/atmel/studio/7.0/toolchain/avr8/avr8-gnu-toolchain/bin/../lib/gcc/avr/5.4.0/avr51\libgcc.a(_divmodhi4.o)
 .bss           0x00000000        0x0 c:/program files (x86)/atmel/studio/7.0/toolchain/avr8/avr8-gnu-toolchain/bin/../lib/gcc/avr/5.4.0/avr51\libgcc.a(_divmodhi4.o)
 .text.libgcc.mul
                0x00000000        0x0 c:/program files (x86)/atmel/studio/7.0/toolchain/avr8/avr8-gnu-toolchain/bin/../lib/gcc/avr/5.4.0/avr51\libgcc.a(_divmodhi4.o)
 .text.libgcc   0x00000000        0x0 c:/program files (x86)/atmel/studio/7.0/toolchain/avr8/avr8-gnu-toolchain/bin/../lib/gcc/avr/5.4.0/avr51\libgcc.a(_divmodhi4.o)
 .text.libgcc.prologue
                0x00000000        0x0 c:/program files (x86)/atmel/studio/7.0/toolchain/avr8/avr8-gnu-toolchain/bin/../lib/gcc/avr/5.4.0/avr51\libgcc.a(_divmodhi4.o)
 .text.libgcc.builtins
                0x00000000        0x0 c:/program files (x86)/atmel/studio/7.0/toolchain/avr8/avr8-gnu-toolchain/bin/../lib/gcc/avr/5.4.0/avr51\libgcc.a(_divmodhi4.o)
 .text.libgcc.fmul
                0x00000000        0x0 c:/program files (x86)/atmel/studio/7.0/toolchain/avr8/avr8-gnu-toolchain/bin/../lib/gcc/avr/5.4.0/avr51\libgcc.a(_divmodhi4.o)
 .text.libgcc.fixed
                0x00000000        0x0 c:/program files (x86)/atmel/studio/7.0/toolchain/avr8/avr8-gnu-toolchain/bin/../lib/gcc/avr/5.4.0/avr51\libgcc.a(_divmodhi4.o)
 .text          0x00000000        0x0 c:/program files (x86)/atmel/studio/7.0/toolchain/avr8/avr8-gnu-toolchain/bin/../lib/gcc/avr/5.4.0/avr51\libgcc.a(_udivmodsi4.o)
 .data          0x00000000        0x0 c:/program files (x86)/atmel/studio/7.0/toolchain/avr8/avr8-gnu-toolchain/bin/../lib/gcc/avr/5.4.0/avr51\libgcc.a(_udivmodsi4.o)
 .bss           0x00000000        0x0 c:/program files (x86)/atmel/studio/7.0/toolchain/avr8/avr8-gnu-toolchain/bin/../lib/gcc/avr/5.4.0/avr51\libgcc.a(_udivmodsi4.o)
 .text.libgcc.mul
                0x00000000        0x0 c:/program files (x86)/atmel/studio/7.0/toolchain/avr8/avr8-gnu-toolchain/bin/../lib/gcc/avr/5.4.0/avr51\libgcc.a(_udivmodsi4.o)
 .text.libgcc   0x00000000        0x0 c:/program files (x86)/atmel/studio/7.0/toolchain/avr8/avr8-gnu-toolchain/bin/../lib/gcc/avr/5.4.0/avr51\libgcc.a(_udivmodsi4.o)
 .text.libgcc.prologue
                0x00000000        0x0 c:/program files (x86)/atmel/studio/7.0/toolchain/avr8/avr8-gnu-toolchain/bin/../lib/gcc/avr/5.4.0/avr51\libgcc.a(_udivmodsi4.o)
 .text.libgcc.builtins
                0x00000000        0x0 c:/program files (x86)/atmel/studio/7.0/toolchain/avr8/avr8-gnu-toolchain/bin/../lib/gcc/avr/5.4.0/avr51\libgcc.a(_udivmodsi4.o)
 .text.libgcc.fmul
                0x00000000        0x0 c:/program files (x86)/atmel/studio/7.0/toolchain/avr8/avr8-gnu-toolchain/bin/../lib/gcc/avr/5.4.0/avr51\libgcc.a(_udivmodsi4.o)
 .text.libgcc.fixed
                0x00000000        0x0 c:/program files (x86)/atmel/studio/7.0/toolchain/avr8/avr8-gnu-toolchain/bin/../lib/gcc/avr/5.4.0/avr51\libgcc.a(_udivmodsi4.o)
 .text          0x00000000        0x0 c:/program files (x86)/atmel/studio/7.0/toolchain/avr8/avr8-gnu-toolchain/bin/../lib/gcc/avr/5.4.0/avr51\libgcc.a(_divmodsi4.o)
 .data          0x00000000        0x0 c:/program files (x86)/atmel/studio/7.0/toolchain/avr8/avr8-gnu-toolchain/bin/../lib/gcc/avr/5.4.0/avr51\libgcc.a(_divmodsi4.o)
 .bss           0x00000000        0x0 c:/program files (x86)/atmel/studio/7.0/toolchain/avr8/avr8-gnu-toolchain/bin/../lib/gcc/avr/5.4.0/avr51\libgcc.a(_divmodsi4.o)
 .text.libgcc.mul
                0x00000000        0x0 c:/program files (x86)/atmel/studio/7.0/toolchain/avr8/avr8-gnu-toolchain/bin/../lib/gcc/avr/5.4.0/avr51\libgcc.a(_divmodsi4.o)
 .text.libgcc   0x00000000        0x0 c:/program files (x86)/atmel/studio/7.0/toolchain/avr8/avr8-gnu-toolchain/bin/../lib/gcc/avr/5.4.0/avr51\libgcc.a(_divmodsi4.o)
 .text.libgcc.prologue
                0x00000000        0x0 c:/program files (x86)/atmel/studio/7.0/toolchain/avr8/avr8-gnu-toolchain/bin/../lib/gcc/avr/5.4.0/avr51\libgcc.a(_divmodsi4.o)
 .text.libgcc.builtins
                0x00000000        0x0 c:/program files (x86)/atmel/studio/7.0/toolchain/avr8/avr8-gnu-toolchain/bin/../lib/gcc/avr/5.4.0/avr51\libgcc.a(_divmodsi4.o)
 .text.libgcc.fmul
                0x00000000        0x0 c:/program files (x86)/atmel/studio/7.0/toolchain/avr8/avr8-gnu-toolchain/bin/../lib/gcc/avr/5.4.0/avr51\libgcc.a(_divmodsi4.o)
 .text.libgcc.fixed
                0x00000000        0x0 c:/program files (x86)/atmel/studio/7.0/toolchain/avr8/avr8-gnu-toolchain/bin/../lib/gcc/avr/5.4.0/avr51\libgcc.a(_divmodsi4.o)
 .text          0x00000000        0x0 c:/program files (x86)/atmel/studio/7.0/toolchain/avr8/avr8-gnu-toolchain/bin/../lib/gcc/avr/5.4.0/avr51\libgcc.a(_negsi2.o)
 .data          0x00000000        0x0 c:/program files (x86)/atmel/studio/7.0/toolchain/avr8/avr8-gnu-toolchain/bin/../lib/gcc/avr/5.4.0/avr51\libgcc.a(_negsi2.o)
 .bss           0x00000000        0x0 c:/program files (x86)/atmel/studio/7.0/toolchain/avr8/avr8-gnu-toolchain/bin/../lib/gcc/avr/5.4.0/avr51\libgcc.a(_negsi2.o)
 .text.libgcc.mul
                0x00000000        0x0 c:/program files (x86)/atmel/studio/7.0/toolchain/avr8/avr8-gnu-toolchain/bin/../lib/gcc/avr/5.4.0/avr51\libgcc.a(_negsi2.o)
 .text.libgcc   0x00000000        0x0 c:/program files (x86)/atmel/studio/7.0/toolchain/avr8/avr8-gnu-toolchain/bin/../lib/gcc/avr/5.4.0/avr51\libgcc.a(_negsi2.o)
 .text.libgcc.prologue
                0x00000000        0x0 c:/program files (x86)/atmel/studio/7.0/toolchain/avr8/avr8-gnu-toolchain/bin/../lib/gcc/avr/5.4.0/avr51\libgcc.a(_negsi2.o)
 .text.libgcc.builtins
                0x00000000        0x0 c:/program files (x86)/atmel/studio/7.0/toolchain/avr8/avr8-gnu-toolchain/bin/../lib/gcc/avr/5.4.0/avr51\libgcc.a(_negsi2.o)
 .text.libgcc.fmul
                0x00000000        0x0 c:/program files (x86)/atmel/studio/7.0/toolchain/avr8/avr8-gnu-toolchain/bin/../lib/gcc/avr/5.4.0/avr51\libgcc.a(_negsi2.o)
 .text.libgcc.fixed
                0x00000000        0x0 c:/program files (x86)/atmel/studio/7.0/toolchain/avr8/avr8-gnu-toolchain/bin/../lib/gcc/avr/5.4.0/avr51\libgcc.a(_negsi2.o)
 .text          0x00000000        0x0 c:/program files (x86)/atmel/studio/7.0/toolchain/avr8/avr8-gnu-toolchain/bin/../lib/gcc/avr/5.4.0/avr51\libgcc.a(_exit.o)
 .data          0x00000000        0x0 c:/program files (x86)/atmel/studio/7.0/toolchain/avr8/avr8-gnu-toolchain/bin/../lib/gcc/avr/5.4.0/avr51\libgcc.a(_exit.o)
 .bss           0x00000000        0x0 c:/program files (x86)/atmel/studio/7.0/toolchain/avr8/avr8-gnu-toolchain/bin/../lib/gcc/avr/5.4.0/avr51\libgcc.a(_exit.o)
 .text.libgcc.mul
                0x00000000        0x0 c:/program files (x86)/atmel/studio/7.0/toolchain/avr8/avr8-gnu-toolchain/bin/../lib/gcc/avr/5.4.0/avr51\libgcc.a(_exit.o)
 .text.libgcc.div
                0x00000000        0x0 c:/program files (x86)/atmel/studio/7.0/toolchain/avr8/avr8-gnu-toolchain/bin/../lib/gcc/avr/5.4.0/avr51\libgcc.a(_exit.o)
 .text.libgcc   0x00000000        0x0 c:/program files (x86)/atmel/studio/7.0/toolchain/avr8/avr8-gnu-toolchain/bin/../lib/gcc/avr/5.4.0/avr51\libgcc.a(_exit.o)
 .text.libgcc.prologue
                0x00000000        0x0 c:/program files (x86)/atmel/studio/7.0/toolchain/avr8/avr8-gnu-toolchain/bin/../lib/gcc/avr/5.4.0/avr51\libgcc.a(_exit.o)
 .text.libgcc.builtins
                0x00000000        0x0 c:/program files (x86)/atmel/studio/7.0/toolchain/avr8/avr8-gnu-toolchain/bin/../lib/gcc/avr/5.4.0/avr51\libgcc.a(_exit.o)
 .text.libgcc.fmul
                0x00000000        0x0 c:/program files (x86)/atmel/studio/7.0/toolchain/avr8/avr8-gnu-toolchain/bin/../lib/gcc/avr/5.4.0/avr51\libgcc.a(_exit.o)
 .text.libgcc.fixed
                0x00000000        0x0 c:/program files (x86)/atmel/studio/7.0/toolchain/avr8/avr8-gnu-toolchain/bin/../lib/gcc/avr/5.4.0/avr51\libgcc.a(_exit.o)
 .text          0x00000000        0x0 c:/program files (x86)/atmel/studio/7.0/toolchain/avr8/avr8-gnu-toolchain/bin/../lib/gcc/avr/5.4.0/avr51\libgcc.a(_tablejump2.o)
 .data          0x00000000        0x0 c:/program files (x86)/atmel/studio/7.0/toolchain/avr8/avr8-gnu-toolchain/bin/../lib/gcc/avr/5.4.0/avr51\libgcc.a(_tablejump2.o)
 .bss           0x00000000        0x0 c:/program files (x86)/atmel/studio/7.0/toolchain/avr8/avr8-gnu-toolchain/bin/../lib/gcc/avr/5.4.0/avr51\libgcc.a(_tablejump2.o)
 .text.libgcc.mul
                0x00000000        0x0 c:/program files (x86)/atmel/studio/7.0/toolchain/avr8/avr8-gnu-toolchain/bin/../lib/gcc/avr/5.4.0/avr51\libgcc.a(_tablejump2.o)
 .text.libgcc.div
                0x00000000        0x0 c:/program files (x86)/atmel/studio/7.0/toolchain/avr8/avr8-gnu-toolchain/bin/../lib/gcc/avr/5.4.0/avr51\libgcc.a(_tablejump2.o)
 .text.libgcc.prologue
                0x00000000        0x0 c:/program files (x86)/atmel/studio/7.0/toolchain/avr8/avr8-gnu-toolchain/bin/../lib/gcc/avr/5.4.0/avr51\libgcc.a(_tablejump2.o)
 .text.libgcc.builtins
                0x00000000        0x0 c:/program files (x86)/atmel/studio/7.0/toolchain/avr8/avr8-gnu-toolchain/bin/../lib/gcc/avr/5.4.0/avr51\libgcc.a(_tablejump2.o)
 .text.libgcc.fmul
                0x00000000        0x0 c:/program files (x86)/atmel/studio/7.0/toolchain/avr8/avr8-gnu-toolchain/bin/../lib/gcc/avr/5.4.0/avr51\libgcc.a(_tablejump2.o)
 .text.libgcc.fixed
                0x00000000        0x0 c:/program files (x86)/atmel/studio/7.0/toolchain/avr8/avr8-gnu-toolchain/bin/../lib/gcc/avr/5.4.0/avr51\libgcc.a(_tablejump2.o)
 .text          0x00000000        0x0 c:/program files (x86)/atmel/studio/7.0/toolchain/avr8/avr8-gnu-toolchain/bin/../lib/gcc/avr/5.4.0/avr51\libgcc.a(_copy_data.o)
 .data          0x00000000        0x0 c:/program files (x86)/atmel/studio/7.0/toolchain/avr8/avr8-gnu-toolchain/bin/../lib/gcc/avr/5.4.0/avr51\libgcc.a(_copy_data.o)
 .bss           0x00000000        0x0 c:/program files (x86)/atmel/studio/7.0/toolchain/avr8/avr8-gnu-toolchain/bin/../lib/gcc/avr/5.4.0/avr51\libgcc.a(_copy_data.o)
 .text.libgcc.mul
                0x00000000        0x0 c:/program files (x86)/atmel/studio/7.0/toolchain/avr8/avr8-gnu-toolchain/bin/../lib/gcc/avr/5.4.0/avr51\libgcc.a(_copy_data.o)
 .text.libgcc.div
                0x00000000        0x0 c:/program files (x86)/atmel/studio/7.0/toolchain/avr8/avr8-gnu-toolchain/bin/../lib/gcc/avr/5.4.0/avr51\libgcc.a(_copy_data.o)
 .text.libgcc   0x00000000        0x0 c:/program files (x86)/atmel/studio/7.0/toolchain/avr8/avr8-gnu-toolchain/bin/../lib/gcc/avr/5.4.0/avr51\libgcc.a(_copy_data.o)
 .text.libgcc.prologue
                0x00000000        0x0 c:/program files (x86)/atmel/studio/7.0/toolchain/avr8/avr8-gnu-toolchain/bin/../lib/gcc/avr/5.4.0/avr51\libgcc.a(_copy_data.o)
 .text.libgcc.builtins
                0x00000000        0x0 c:/program files (x86)/atmel/studio/7.0/toolchain/avr8/avr8-gnu-toolchain/bin/../lib/gcc/avr/5.4.0/avr51\libgcc.a(_copy_data.o)
 .text.libgcc.fmul
                0x00000000        0x0 c:/program files (x86)/atmel/studio/7.0/toolchain/avr8/avr8-gnu-toolchain/bin/../lib/gcc/avr/5.4.0/avr51\libgcc.a(_copy_data.o)
 .text.libgcc.fixed
                0x00000000        0x0 c:/program files (x86)/atmel/studio/7.0/toolchain/avr8/avr8-gnu-toolchain/bin/../lib/gcc/avr/5.4.0/avr51\libgcc.a(_copy_data.o)
 .text          0x00000000        0x0 c:/program files (x86)/atmel/studio/7.0/toolchain/avr8/avr8-gnu-toolchain/bin/../lib/gcc/avr/5.4.0/avr51\libgcc.a(_clear_bss.o)
 .data          0x00000000        0x0 c:/program files (x86)/atmel/studio/7.0/toolchain/avr8/avr8-gnu-toolchain/bin/../lib/gcc/avr/5.4.0/avr51\libgcc.a(_clear_bss.o)
 .bss           0x00000000        0x0 c:/program files (x86)/atmel/studio/7.0/toolchain/avr8/avr8-gnu-toolchain/bin/../lib/gcc/avr/5.4.0/avr51\libgcc.a(_clear_bss.o)
 .text.libgcc.mul
                0x00000000        0x0 c:/program files (x86)/atmel/studio/7.0/toolchain/avr8/avr8-gnu-toolchain/bin/../lib/gcc/avr/5.4.0/avr51\libgcc.a(_clear_bss.o)
 .text.libgcc.div
                0x00000000        0x0 c:/program files (x86)/atmel/studio/7.0/toolchain/avr8/avr8-gnu-toolchain/bin/../lib/gcc/avr/5.4.0/avr51\libgcc.a(_clear_bss.o)
 .text.libgcc   0x00000000        0x0 c:/program files (x86)/atmel/studio/7.0/toolchain/avr8/avr8-gnu-toolchain/bin/../lib/gcc/avr/5.4.0/avr51\libgcc.a(_clear_bss.o)
 .text.libgcc.prologue
                0x00000000        0x0 c:/program files (x86)/atmel/studio/7.0/toolchain/avr8/avr8-gnu-toolchain/bin/../lib/gcc/avr/5.4.0/avr51\libgcc.a(_clear_bss.o)
 .text.libgcc.builtins
                0x00000000        0x0 c:/program files (x86)/atmel/studio/7.0/toolchain/avr8/avr8-gnu-toolchain/bin/../lib/gcc/avr/5.4.0/avr51\libgcc.a(_clear_bss.o)
 .text.libgcc.fmul
                0x00000000        0x0 c:/program files (x86)/atmel/studio/7.0/toolchain/avr8/avr8-gnu-toolchain/bin/../lib/gcc/avr/5.4.0/avr51\libgcc.a(_clear_bss.o)
 .text.libgcc.fixed
                0x00000000        0x0 c:/program files (x86)/atmel/studio/7.0/toolchain/avr8/avr8-gnu-toolchain/bin/../lib/gcc/avr/5.4.0/avr51\libgcc.a(_clear_bss.o)
 .text          0x00000000        0x0 c:/program files (x86)/atmel/studio/7.0/toolchain/avr8/avr8-gnu-toolchain/bin/../lib/gcc/avr/5.4.0/avr51\libgcc.a(_ctors.o)
 .data          0x00000000        0x0 c:/program files (x86)/atmel/studio/7.0/toolchain/avr8/avr8-gnu-toolchain/bin/../lib/gcc/avr/5.4.0/avr51\libgcc.a(_ctors.o)
 .bss           0x00000000        0x0 c:/program files (x86)/atmel/studio/7.0/toolchain/avr8/avr8-gnu-toolchain/bin/../lib/gcc/avr/5.4.0/avr51\libgcc.a(_ctors.o)
 .text.libgcc.mul
                0x00000000        0x0 c:/program files (x86)/atmel/studio/7.0/toolchain/avr8/avr8-gnu-toolchain/bin/../lib/gcc/avr/5.4.0/avr51\libgcc.a(_ctors.o)
 .text.libgcc.div
                0x00000000        0x0 c:/program files (x86)/atmel/studio/7.0/toolchain/avr8/avr8-gnu-toolchain/bin/../lib/gcc/avr/5.4.0/avr51\libgcc.a(_ctors.o)
 .text.libgcc   0x00000000        0x0 c:/program files (x86)/atmel/studio/7.0/toolchain/avr8/avr8-gnu-toolchain/bin/../lib/gcc/avr/5.4.0/avr51\libgcc.a(_ctors.o)
 .text.libgcc.prologue
                0x00000000        0x0 c:/program files (x86)/atmel/studio/7.0/toolchain/avr8/avr8-gnu-toolchain/bin/../lib/gcc/avr/5.4.0/avr51\libgcc.a(_ctors.o)
 .text.libgcc.builtins
                0x00000000        0x0 c:/program files (x86)/atmel/studio/7.0/toolchain/avr8/avr8-gnu-toolchain/bin/../lib/gcc/avr/5.4.0/avr51\libgcc.a(_ctors.o)
 .text.libgcc.fmul
                0x00000000        0x0 c:/program files (x86)/atmel/studio/7.0/toolchain/avr8/avr8-gnu-toolchain/bin/../lib/gcc/avr/5.4.0/avr51\libgcc.a(_ctors.o)
 .text.libgcc.fixed
                0x00000000        0x0 c:/program files (x86)/atmel/studio/7.0/toolchain/avr8/avr8-gnu-toolchain/bin/../lib/gcc/avr/5.4.0/avr51\libgcc.a(_ctors.o)
 .text          0x00000000        0x0 c:/program files (x86)/atmel/studio/7.0/toolchain/avr8/avr8-gnu-toolchain/bin/../lib/gcc/avr/5.4.0/avr51\libgcc.a(_dtors.o)
 .data          0x00000000        0x0 c:/program files (x86)/atmel/studio/7.0/toolchain/avr8/avr8-gnu-toolchain/bin/../lib/gcc/avr/5.4.0/avr51\libgcc.a(_dtors.o)
 .bss           0x00000000        0x0 c:/program files (x86)/atmel/studio/7.0/toolchain/avr8/avr8-gnu-toolchain/bin/../lib/gcc/avr/5.4.0/avr51\libgcc.a(_dtors.o)
 .text.libgcc.mul
                0x00000000        0x0 c:/program files (x86)/atmel/studio/7.0/toolchain/avr8/avr8-gnu-toolchain/bin/../lib/gcc/avr/5.4.0/avr51\libgcc.a(_dtors.o)
 .text.libgcc.div
                0x00000000        0x0 c:/program files (x86)/atmel/studio/7.0/toolchain/avr8/avr8-gnu-toolchain/bin/../lib/gcc/avr/5.4.0/avr51\libgcc.a(_dtors.o)
 .text.libgcc   0x00000000        0x0 c:/program files (x86)/atmel/studio/7.0/toolchain/avr8/avr8-gnu-toolchain/bin/../lib/gcc/avr/5.4.0/avr51\libgcc.a(_dtors.o)
 .text.libgcc.prologue
                0x00000000        0x0 c:/program files (x86)/atmel/studio/7.0/toolchain/avr8/avr8-gnu-toolchain/bin/../lib/gcc/avr/5.4.0/avr51\libgcc.a(_dtors.o)
 .text.libgcc.builtins
                0x00000000        0x0 c:/program files (x86)/atmel/studio/7.0/toolchain/avr8/avr8-gnu-toolchain/bin/../lib/gcc/avr/5.4.0/avr51\libgcc.a(_dtors.o)
 .text.libgcc.fmul
                0x00000000        0x0 c:/program files (x86)/atmel/studio/7.0/toolchain/avr8/avr8-gnu-toolchain/bin/../lib/gcc/avr/5.4.0/avr51\libgcc.a(_dtors.o)
 .text.libgcc.fixed
                0x00000000        0x0 c:/program files (x86)/atmel/studio/7.0/toolchain/avr8/avr8-gnu-toolchain/bin/../lib/gcc/avr/5.4.0/avr51\libgcc.a(_dtors.o)
 .text          0x00000000        0x0 c:/program files (x86)/atmel/studio/7.0/toolchain/avr8/avr8-gnu-toolchain/bin/../lib/gcc/avr/5.4.0/avr51\libgcc.a(_umulhisi3.o)
 .data          0x00000000        0x0 c:/program files (x86)/atmel/studio/7.0/toolchain/avr8/avr8-gnu-toolchain/bin/../lib/gcc/avr/5.4.0/avr51\libgcc.a(_umulhisi3.o)
 .bss           0x00000000        0x0 c:/program files (x86)/atmel/studio/7.0/toolchain/avr8/avr8-gnu-toolchain/bin/../lib/gcc/avr/5.4.0/avr51\libgcc.a(_umulhisi3.o)
 .text.libgcc.div
                0x00000000        0x0 c:/program files (x86)/atmel/studio/7.0/toolchain/avr8/avr8-gnu-toolchain/bin/../lib/gcc/avr/5.4.0/avr51\libgcc.a(_umulhisi3.o)
 .text.libgcc   0x00000000        0x0 c:/program files (x86)/atmel/studio/7.0/toolchain/avr8/avr8-gnu-toolchain/bin/../lib/gcc/avr/5.4.0/avr51\libgcc.a(_umulhisi3.o)
 .text.libgcc.prologue
                0x00000000        0x0 c:/program files (x86)/atmel/studio/7.0/toolchain/avr8/avr8-gnu-toolchain/bin/../lib/gcc/avr/5.4.0/avr51\libgcc.a(_umulhisi3.o)
 .text.libgcc.builtins
                0x00000000        0x0 c:/program files (x86)/atmel/studio/7.0/toolchain/avr8/avr8-gnu-toolchain/bin/../lib/gcc/avr/5.4.0/avr51\libgcc.a(_umulhisi3.o)
 .text.libgcc.fmul
                0x00000000        0x0 c:/program files (x86)/atmel/studio/7.0/toolchain/avr8/avr8-gnu-toolchain/bin/../lib/gcc/avr/5.4.0/avr51\libgcc.a(_umulhisi3.o)
 .text.libgcc.fixed
                0x00000000        0x0 c:/program files (x86)/atmel/studio/7.0/toolchain/avr8/avr8-gnu-toolchain/bin/../lib/gcc/avr/5.4.0/avr51\libgcc.a(_umulhisi3.o)
 .text          0x00000000        0x0 c:/program files (x86)/atmel/studio/7.0/toolchain/avr8/avr8-gnu-toolchain/bin/../lib/gcc/avr/5.4.0/avr51\libgcc.a(_usmulhisi3.o)
 .data          0x00000000        0x0 c:/program files (x86)/atmel/studio/7.0/toolchain/avr8/avr8-gnu-toolchain/bin/../lib/gcc/avr/5.4.0/avr51\libgcc.a(_usmulhisi3.o)
 .bss           0x00000000        0x0 c:/program files (x86)/atmel/studio/7.0/toolchain/avr8/avr8-gnu-toolchain/bin/../lib/gcc/avr/5.4.0/avr51\libgcc.a(_usmulhisi3.o)
 .text.libgcc.div
                0x00000000        0x0 c:/program files (x86)/atmel/studio/7.0/toolchain/avr8/avr8-gnu-toolchain/bin/../lib/gcc/avr/5.4.0/avr51\libgcc.a(_usmulhisi3.o)
 .text.libgcc   0x00000000        0x0 c:/program files (x86)/atmel/studio/7.0/toolchain/avr8/avr8-gnu-toolchain/bin/../lib/gcc/avr/5.4.0/avr51\libgcc.a(_usmulhisi3.o)
 .text.libgcc.prologue
                0x00000000        0x0 c:/program files (x86)/atmel/studio/7.0/toolchain/avr8/avr8-gnu-toolchain/bin/../lib/gcc/avr/5.4.0/avr51\libgcc.a(_usmulhisi3.o)
 .text.libgcc.builtins
                0x00000000        0x0 c:/program files (x86)/atmel/studio/7.0/toolchain/avr8/avr8-gnu-toolchain/bin/../lib/gcc/avr/5.4.0/avr51\libgcc.a(_usmulhisi3.o)
 .text.libgcc.fmul
                0x00000000        0x0 c:/program files (x86)/atmel/studio/7.0/toolchain/avr8/avr8-gnu-toolchain/bin/../lib/gcc/avr/5.4.0/avr51\libgcc.a(_usmulhisi3.o)
 .text.libgcc.fixed
                0x00000000        0x0 c:/program files (x86)/atmel/studio/7.0/toolchain/avr8/avr8-gnu-toolchain/bin/../lib/gcc/avr/5.4.0/avr51\libgcc.a(_usmulhisi3.o)
 .text          0x00000000        0x0 c:/program files (x86)/atmel/studio/7.0/toolchain/avr8/avr8-gnu-toolchain/bin/../lib/gcc/avr/5.4.0/avr51\libgcc.a(_muluhisi3.o)
 .data          0x00000000        0x0 c:/program files (x86)/atmel/studio/7.0/toolchain/avr8/avr8-gnu-toolchain/bin/../lib/gcc/avr/5.4.0/avr51\libgcc.a(_muluhisi3.o)
 .bss           0x00000000        0x0 c:/program files (x86)/atmel/studio/7.0/toolchain/avr8/avr8-gnu-toolchain/bin/../lib/gcc/avr/5.4.0/avr51\libgcc.a(_muluhisi3.o)
 .text.libgcc.div
                0x00000000        0x0 c:/program files (x86)/atmel/studio/7.0/toolchain/avr8/avr8-gnu-toolchain/bin/../lib/gcc/avr/5.4.0/avr51\libgcc.a(_muluhisi3.o)
 .text.libgcc   0x00000000        0x0 c:/program files (x86)/atmel/studio/7.0/toolchain/avr8/avr8-gnu-toolchain/bin/../lib/gcc/avr/5.4.0/avr51\libgcc.a(_muluhisi3.o)
 .text.libgcc.prologue
                0x00000000        0x0 c:/program files (x86)/atmel/studio/7.0/toolchain/avr8/avr8-gnu-toolchain/bin/../lib/gcc/avr/5.4.0/avr51\libgcc.a(_muluhisi3.o)
 .text.libgcc.builtins
                0x00000000        0x0 c:/program files (x86)/atmel/studio/7.0/toolchain/avr8/avr8-gnu-toolchain/bin/../lib/gcc/avr/5.4.0/avr51\libgcc.a(_muluhisi3.o)
 .text.libgcc.fmul
                0x00000000        0x0 c:/program files (x86)/atmel/studio/7.0/toolchain/avr8/avr8-gnu-toolchain/bin/../lib/gcc/avr/5.4.0/avr51\libgcc.a(_muluhisi3.o)
 .text.libgcc.fixed
                0x00000000        0x0 c:/program files (x86)/atmel/studio/7.0/toolchain/avr8/avr8-gnu-toolchain/bin/../lib/gcc/avr/5.4.0/avr51\libgcc.a(_muluhisi3.o)
 .text          0x00000000        0x0 c:/program files (x86)/atmel/studio/7.0/toolchain/avr8/avr8-gnu-toolchain/bin/../lib/gcc/avr/5.4.0/avr51\libgcc.a(_udivmodhi4.o)
 .data          0x00000000        0x0 c:/program files (x86)/atmel/studio/7.0/toolchain/avr8/avr8-gnu-toolchain/bin/../lib/gcc/avr/5.4.0/avr51\libgcc.a(_udivmodhi4.o)
 .bss           0x00000000        0x0 c:/program files (x86)/atmel/studio/7.0/toolchain/avr8/avr8-gnu-toolchain/bin/../lib/gcc/avr/5.4.0/avr51\libgcc.a(_udivmodhi4.o)
 .text.libgcc.mul
                0x00000000        0x0 c:/program files (x86)/atmel/studio/7.0/toolchain/avr8/avr8-gnu-toolchain/bin/../lib/gcc/avr/5.4.0/avr51\libgcc.a(_udivmodhi4.o)
 .text.libgcc   0x00000000        0x0 c:/program files (x86)/atmel/studio/7.0/toolchain/avr8/avr8-gnu-toolchain/bin/../lib/gcc/avr/5.4.0/avr51\libgcc.a(_udivmodhi4.o)
 .text.libgcc.prologue
                0x00000000        0x0 c:/program files (x86)/atmel/studio/7.0/toolchain/avr8/avr8-gnu-toolchain/bin/../lib/gcc/avr/5.4.0/avr51\libgcc.a(_udivmodhi4.o)
 .text.libgcc.builtins
                0x00000000        0x0 c:/program files (x86)/atmel/studio/7.0/toolchain/avr8/avr8-gnu-toolchain/bin/../lib/gcc/avr/5.4.0/avr51\libgcc.a(_udivmodhi4.o)
 .text.libgcc.fmul
                0x00000000        0x0 c:/program files (x86)/atmel/studio/7.0/toolchain/avr8/avr8-gnu-toolchain/bin/../lib/gcc/avr/5.4.0/avr51\libgcc.a(_udivmodhi4.o)
 .text.libgcc.fixed
                0x00000000        0x0 c:/program files (x86)/atmel/studio/7.0/toolchain/avr8/avr8-gnu-toolchain/bin/../lib/gcc/avr/5.4.0/avr51\libgcc.a(_udivmodhi4.o)
 .text          0x00000000        0x0 c:/program files (x86)/atmel/studio/7.0/toolchain/avr8/avr8-gnu-toolchain/bin/../lib/gcc/avr/5.4.0/../../../../avr/lib/avr51\libc.a(malloc.o)
 .bss           0x00000000        0x0 c:/program files (x86)/atmel/studio/7.0/toolchain/avr8/avr8-gnu-toolchain/bin/../lib/gcc/avr/5.4.0/../../../../avr/lib/avr51\libc.a(malloc.o)
 .text          0x00000000        0x0 c:/program files (x86)/atmel/studio/7.0/toolchain/avr8/avr8-gnu-toolchain/bin/../lib/gcc/avr/5.4.0/../../../../avr/lib/avr51\libc.a(memcpy_P.o)
 .data          0x00000000        0x0 c:/program files (x86)/atmel/studio/7.0/toolchain/avr8/avr8-gnu-toolchain/bin/../lib/gcc/avr/5.4.0/../../../../avr/lib/avr51\libc.a(memcpy_P.o)
 .bss           0x00000000        0x0 c:/program files (x86)/atmel/studio/7.0/toolchain/avr8/avr8-gnu-toolchain/bin/../lib/gcc/avr/5.4.0/../../../../avr/lib/avr51\libc.a(memcpy_P.o)
 .text          0x00000000        0x0 c:/program files (x86)/atmel/studio/7.0/toolchain/avr8/avr8-gnu-toolchain/bin/../lib/gcc/avr/5.4.0/../../../../avr/lib/avr51\libc.a(strncpy.o)
 .data          0x00000000        0x0 c:/program files (x86)/atmel/studio/7.0/toolchain/avr8/avr8-gnu-toolchain/bin/../lib/gcc/avr/5.4.0/../../../../avr/lib/avr51\libc.a(strncpy.o)
 .bss           0x00000000        0x0 c:/program files (x86)/atmel/studio/7.0/toolchain/avr8/avr8-gnu-toolchain/bin/../lib/gcc/avr/5.4.0/../../../../avr/lib/avr51\libc.a(strncpy.o)
 .text          0x00000000        0x0 c:/program files (x86)/atmel/studio/7.0/toolchain/avr8/avr8-gnu-toolchain/bin/../lib/gcc/avr/5.4.0/../../../../avr/lib/avr51\libc.a(snprintf.o)
 .data          0x00000000        0x0 c:/program files (x86)/atmel/studio/7.0/toolchain/avr8/avr8-gnu-toolchain/bin/../lib/gcc/avr/5.4.0/../../../../avr/lib/avr51\libc.a(snprintf.o)
 .bss           0x00000000        0x0 c:/program files (x86)/atmel/studio/7.0/toolchain/avr8/avr8-gnu-toolchain/bin/../lib/gcc/avr/5.4.0/../../../../avr/lib/avr51\libc.a(snprintf.o)
 .text.avr-libc
                0x00000000       0x7a c:/program files (x86)/atmel/studio/7.0/toolchain/avr8/avr8-gnu-toolchain/bin/../lib/gcc/avr/5.4.0/../../../../avr/lib/avr51\libc.a(snprintf.o)
 .comment       0x00000000       0x31 c:/program files (x86)/atmel/studio/7.0/toolchain/avr8/avr8-gnu-toolchain/bin/../lib/gcc/avr/5.4.0/../../../../avr/lib/avr51\libc.a(snprintf.o)
 .text          0x00000000        0x0 c:/program files (x86)/atmel/studio/7.0/toolchain/avr8/avr8-gnu-toolchain/bin/../lib/gcc/avr/5.4.0/../../../../avr/lib/avr51\libc.a(vfprintf_std.o)
 .data          0x00000000        0x0 c:/program files (x86)/atmel/studio/7.0/toolchain/avr8/avr8-gnu-toolchain/bin/../lib/gcc/avr/5.4.0/../../../../avr/lib/avr51\libc.a(vfprintf_std.o)
 .bss           0x00000000        0x0 c:/program files (x86)/atmel/studio/7.0/toolchain/avr8/avr8-gnu-toolchain/bin/../lib/gcc/avr/5.4.0/../../../../avr/lib/avr51\libc.a(vfprintf_std.o)
 .text.avr-libc
                0x00000000      0x414 c:/program files (x86)/atmel/studio/7.0/toolchain/avr8/avr8-gnu-toolchain/bin/../lib/gcc/avr/5.4.0/../../../../avr/lib/avr51\libc.a(vfprintf_std.o)
 .comment       0x00000000       0x2d c:/program files (x86)/atmel/studio/7.0/toolchain/avr8/avr8-gnu-toolchain/bin/../lib/gcc/avr/5.4.0/../../../../avr/lib/avr51\libc.a(vfprintf_std.o)
 .text          0x00000000        0x0 c:/program files (x86)/atmel/studio/7.0/toolchain/avr8/avr8-gnu-toolchain/bin/../lib/gcc/avr/5.4.0/../../../../avr/lib/avr51\libc.a(strnlen_P.o)
 .data          0x00000000        0x0 c:/program files (x86)/atmel/studio/7.0/toolchain/avr8/avr8-gnu-toolchain/bin/../lib/gcc/avr/5.4.0/../../../../avr/lib/avr51\libc.a(strnlen_P.o)
 .bss           0x00000000        0x0 c:/program files (x86)/atmel/studio/7.0/toolchain/avr8/avr8-gnu-toolchain/bin/../lib/gcc/avr/5.4.0/../../../../avr/lib/avr51\libc.a(strnlen_P.o)
 .text.avr-libc
                0x00000000       0x16 c:/program files (x86)/atmel/studio/7.0/toolchain/avr8/avr8-gnu-toolchain/bin/../lib/gcc/avr/5.4.0/../../../../avr/lib/avr51\libc.a(strnlen_P.o)
 .text          0x00000000        0x0 c:/program files (x86)/atmel/studio/7.0/toolchain/avr8/avr8-gnu-toolchain/bin/../lib/gcc/avr/5.4.0/../../../../avr/lib/avr51\libc.a(strnlen.o)
 .data          0x00000000        0x0 c:/program files (x86)/atmel/studio/7.0/toolchain/avr8/avr8-gnu-toolchain/bin/../lib/gcc/avr/5.4.0/../../../../avr/lib/avr51\libc.a(strnlen.o)
 .bss           0x00000000        0x0 c:/program files (x86)/atmel/studio/7.0/toolchain/avr8/avr8-gnu-toolchain/bin/../lib/gcc/avr/5.4.0/../../../../avr/lib/avr51\libc.a(strnlen.o)
 .text.avr-libc
                0x00000000       0x16 c:/program files (x86)/atmel/studio/7.0/toolchain/avr8/avr8-gnu-toolchain/bin/../lib/gcc/avr/5.4.0/../../../../avr/lib/avr51\libc.a(strnlen.o)
 .text          0x00000000        0x0 c:/program files (x86)/atmel/studio/7.0/toolchain/avr8/avr8-gnu-toolchain/bin/../lib/gcc/avr/5.4.0/../../../../avr/lib/avr51\libc.a(fputc.o)
 .data          0x00000000        0x0 c:/program files (x86)/atmel/studio/7.0/toolchain/avr8/avr8-gnu-toolchain/bin/../lib/gcc/avr/5.4.0/../../../../avr/lib/avr51\libc.a(fputc.o)
 .bss           0x00000000        0x0 c:/program files (x86)/atmel/studio/7.0/toolchain/avr8/avr8-gnu-toolchain/bin/../lib/gcc/avr/5.4.0/../../../../avr/lib/avr51\libc.a(fputc.o)
 .text.avr-libc
                0x00000000       0x78 c:/program files (x86)/atmel/studio/7.0/toolchain/avr8/avr8-gnu-toolchain/bin/../lib/gcc/avr/5.4.0/../../../../avr/lib/avr51\libc.a(fputc.o)
 .comment       0x00000000       0x31 c:/program files (x86)/atmel/studio/7.0/toolchain/avr8/avr8-gnu-toolchain/bin/../lib/gcc/avr/5.4.0/../../../../avr/lib/avr51\libc.a(fputc.o)
 .text          0x00000000        0x0 c:/program files (x86)/atmel/studio/7.0/toolchain/avr8/avr8-gnu-toolchain/bin/../lib/gcc/avr/5.4.0/../../../../avr/lib/avr51\libc.a(ultoa_invert.o)
 .data          0x00000000        0x0 c:/program files (x86)/atmel/studio/7.0/toolchain/avr8/avr8-gnu-toolchain/bin/../lib/gcc/avr/5.4.0/../../../../avr/lib/avr51\libc.a(ultoa_invert.o)
 .bss           0x00000000        0x0 c:/program files (x86)/atmel/studio/7.0/toolchain/avr8/avr8-gnu-toolchain/bin/../lib/gcc/avr/5.4.0/../../../../avr/lib/avr51\libc.a(ultoa_invert.o)
 .text.avr-libc
                0x00000000       0xbc c:/program files (x86)/atmel/studio/7.0/toolchain/avr8/avr8-gnu-toolchain/bin/../lib/gcc/avr/5.4.0/../../../../avr/lib/avr51\libc.a(ultoa_invert.o)

Memory Configuration

Name             Origin             Length             Attributes
text             0x00000000         0x00020000         xr
data             0x00800100         0x0000ff00         rw !x
eeprom           0x00810000         0x00010000         rw !x
fuse             0x00820000         0x00000003         rw !x
lock             0x00830000         0x00000400         rw !x
signature        0x00840000         0x00000400         rw !x
user_signatures  0x00850000         0x00000400         rw !x
*default*        0x00000000         0xffffffff

Linker script and memory map

Address of section .data set to 0x800100
LOAD C:/Program Files (x86)/Atmel/Studio/7.0/Packs/Atmel/ATmega_DFP/1.3.300/gcc/dev/at90can128/avr51/crtat90can128.o
LOAD 922/error.o
LOAD 922/GAINClass.o
LOAD 922/version.o
LOAD Application/eDevice.o
LOAD Application/eDeviceADC.o
LOAD Application/eDeviceDigitalIO.o
LOAD Application/eDeviceEvent.o
LOAD Application/eDeviceNVM.o
LOAD Application/eDevicePWM.o
LOAD Application/eDeviceSerialStream.o
LOAD Application/eDeviceStream.o
LOAD Common/ConfigurationData.o
LOAD Common/GAINDefinitions.o
LOAD Common/MaintenanceTool.o
LOAD Common/PersistenceServices.o
LOAD ControlPanel/ControlPanel.o
LOAD Core/coreADConverter.o
LOAD Core/coreAsyncSerial.o
LOAD Core/coreCAN.o
LOAD Core/coreController.o
LOAD Core/coreI2C.o
LOAD Core/coreNVM.o
LOAD Core/corePorts.o
LOAD Core/corePWM.o
LOAD Core/coreRTC.o
LOAD Core/coreScheduler.o
LOAD Core/coreSPI.o
LOAD Core/coreSystemTimer.o
LOAD Core/eCore.o
LOAD main.o
LOAD Network/coreNSDDiagnostics.o
LOAD Network/coreNSDStack.o
LOAD Network/NSDHandler.o
LOAD Network/NSDMessage.o
LOAD PinCoding/PinCoding.o
START GROUP
LOAD c:/program files (x86)/atmel/studio/7.0/toolchain/avr8/avr8-gnu-toolchain/bin/../lib/gcc/avr/5.4.0/../../../../avr/lib/avr51\libm.a
END GROUP
LOAD c:/program files (x86)/atmel/studio/7.0/toolchain/avr8/avr8-gnu-toolchain/bin/../lib/gcc/avr/5.4.0/avr51\libgcc.a
LOAD c:/program files (x86)/atmel/studio/7.0/toolchain/avr8/avr8-gnu-toolchain/bin/../lib/gcc/avr/5.4.0/../../../../avr/lib/avr51\libm.a
START GROUP
LOAD c:/program files (x86)/atmel/studio/7.0/toolchain/avr8/avr8-gnu-toolchain/bin/../lib/gcc/avr/5.4.0/avr51\libgcc.a
LOAD c:/program files (x86)/atmel/studio/7.0/toolchain/avr8/avr8-gnu-toolchain/bin/../lib/gcc/avr/5.4.0/../../../../avr/lib/avr51\libm.a
LOAD c:/program files (x86)/atmel/studio/7.0/toolchain/avr8/avr8-gnu-toolchain/bin/../lib/gcc/avr/5.4.0/../../../../avr/lib/avr51\libc.a
LOAD C:/Program Files (x86)/Atmel/Studio/7.0/Packs/Atmel/ATmega_DFP/1.3.300/gcc/dev/at90can128/avr51\libat90can128.a
END GROUP
                0x00020000                __TEXT_REGION_LENGTH__ = DEFINED (__TEXT_REGION_LENGTH__)?__TEXT_REGION_LENGTH__:0x20000
                0x0000ff00                __DATA_REGION_LENGTH__ = DEFINED (__DATA_REGION_LENGTH__)?__DATA_REGION_LENGTH__:0xff00
                0x00010000                __EEPROM_REGION_LENGTH__ = DEFINED (__EEPROM_REGION_LENGTH__)?__EEPROM_REGION_LENGTH__:0x10000
                [0x00000003]                __FUSE_REGION_LENGTH__ = DEFINED (__FUSE_REGION_LENGTH__)?__FUSE_REGION_LENGTH__:0x400
                0x00000400                __LOCK_REGION_LENGTH__ = DEFINED (__LOCK_REGION_LENGTH__)?__LOCK_REGION_LENGTH__:0x400
                0x00000400                __SIGNATURE_REGION_LENGTH__ = DEFINED (__SIGNATURE_REGION_LENGTH__)?__SIGNATURE_REGION_LENGTH__:0x400
                0x00000400                __USER_SIGNATURE_REGION_LENGTH__ = DEFINED (__USER_SIGNATURE_REGION_LENGTH__)?__USER_SIGNATURE_REGION_LENGTH__:0x400

.hash
 *(.hash)

.dynsym
 *(.dynsym)

.dynstr
 *(.dynstr)

.gnu.version
 *(.gnu.version)

.gnu.version_d
 *(.gnu.version_d)

.gnu.version_r
 *(.gnu.version_r)

.rel.init
 *(.rel.init)

.rela.init
 *(.rela.init)

.rel.text
 *(.rel.text)
 *(.rel.text.*)
 *(.rel.gnu.linkonce.t*)

.rela.text
 *(.rela.text)
 *(.rela.text.*)
 *(.rela.gnu.linkonce.t*)

.rel.fini
 *(.rel.fini)

.rela.fini
 *(.rela.fini)

.rel.rodata
 *(.rel.rodata)
 *(.rel.rodata.*)
 *(.rel.gnu.linkonce.r*)

.rela.rodata
 *(.rela.rodata)
 *(.rela.rodata.*)
 *(.rela.gnu.linkonce.r*)

.rel.data
 *(.rel.data)
 *(.rel.data.*)
 *(.rel.gnu.linkonce.d*)

.rela.data
 *(.rela.data)
 *(.rela.data.*)
 *(.rela.gnu.linkonce.d*)

.rel.ctors
 *(.rel.ctors)

.rela.ctors
 *(.rela.ctors)

.rel.dtors
 *(.rel.dtors)

.rela.dtors
 *(.rela.dtors)

.rel.got
 *(.rel.got)

.rela.got
 *(.rela.got)

.rel.bss
 *(.rel.bss)

.rela.bss
 *(.rela.bss)

.rel.plt
 *(.rel.plt)

.rela.plt
 *(.rela.plt)

.text           0x00000000     0xedd2
 *(.vectors)
 .vectors       0x00000000       0x94 C:/Program Files (x86)/Atmel/Studio/7.0/Packs/Atmel/ATmega_DFP/1.3.300/gcc/dev/at90can128/avr51/crtat90can128.o
                0x00000000                __vector_default
                0x00000000                __vectors
 *(.vectors)
 *(.progmem.gcc*)
 .progmem.gcc_sw_table._ZN9GAINClass18handleInStateEventER5eventlRb
                0x00000094       0x16 922/GAINClass.o
 .progmem.gcc_sw_table._ZN9GAINClass13handleStateONEj
                0x000000aa       0x16 922/GAINClass.o
 .progmem.gcc_sw_table._ZN9GAINClass15handleGAINEventER5event
                0x000000c0       0x24 922/GAINClass.o
 .progmem.gcc_sw_table._ZN15MaintenanceTool17handleGAINCommandER6stream
                0x000000e4       0x14 Common/MaintenanceTool.o
 .progmem.gcc_sw_table.__vector_35
                0x000000f8      0x1f2 Core/coreI2C.o
 .progmem.gcc_fplib
                0x000002ea       0x28 c:/program files (x86)/atmel/studio/7.0/toolchain/avr8/avr8-gnu-toolchain/bin/../lib/gcc/avr/5.4.0/../../../../avr/lib/avr51\libm.a(exp.o)
 .progmem.gcc_fplib
                0x00000312       0x5a c:/program files (x86)/atmel/studio/7.0/toolchain/avr8/avr8-gnu-toolchain/bin/../lib/gcc/avr/5.4.0/../../../../avr/lib/avr51\libm.a(log.o)
                0x0000036c                . = ALIGN (0x2)
                0x0000036c                __trampolines_start = .
 *(.trampolines)
 .trampolines   0x0000036c        0x0 linker stubs
 *(.trampolines*)
                0x0000036c                __trampolines_end = .
 *libprintf_flt.a:*(.progmem.data)
 *libc.a:*(.progmem.data)
 *(.progmem*)
 .progmem.data.GAINErrorDescription
                0x0000036c       0x58 922/error.o
                0x0000036c                GAINErrorDescription
 .progmem.data.factoryDefaultsCycles
                0x000003c4      0x162 Common/ConfigurationData.o
                0x000003c4                factoryDefaultsCycles
 .progmem.data.factoryDefaultsConfiguration
                0x00000526       0x36 Common/ConfigurationData.o
                0x00000526                factoryDefaultsConfiguration
 .progmem.data.NSDDiagList
                0x0000055c       0x88 Network/coreNSDDiagnostics.o
                0x0000055c                NSDDiagList
                0x000005e4                . = ALIGN (0x2)
 *(.jumptables)
 *(.jumptables*)
 *(.lowtext)
 *(.lowtext*)
                0x000005e4                __ctors_start = .
 *(.ctors)
 .ctors         0x000005e4        0x2 922/GAINClass.o
 .ctors         0x000005e6        0x2 Application/eDevice.o
 .ctors         0x000005e8        0x2 Application/eDeviceEvent.o
 .ctors         0x000005ea        0x2 Common/PersistenceServices.o
 .ctors         0x000005ec        0x2 Network/NSDHandler.o
                0x000005ee                __ctors_end = .
                0x000005ee                __dtors_start = .
 *(.dtors)
 .dtors         0x000005ee        0x2 Application/eDevice.o
                0x000005f0                __dtors_end = .
 SORT(*)(.ctors)
 SORT(*)(.dtors)
 *(.init0)
 .init0         0x000005f0        0x0 C:/Program Files (x86)/Atmel/Studio/7.0/Packs/Atmel/ATmega_DFP/1.3.300/gcc/dev/at90can128/avr51/crtat90can128.o
                0x000005f0                __init
 *(.init0)
 *(.init1)
 *(.init1)
 *(.init2)
 .init2         0x000005f0        0xc C:/Program Files (x86)/Atmel/Studio/7.0/Packs/Atmel/ATmega_DFP/1.3.300/gcc/dev/at90can128/avr51/crtat90can128.o
 *(.init2)
 *(.init3)
 *(.init3)
 *(.init4)
 .init4         0x000005fc       0x1a c:/program files (x86)/atmel/studio/7.0/toolchain/avr8/avr8-gnu-toolchain/bin/../lib/gcc/avr/5.4.0/avr51\libgcc.a(_copy_data.o)
                0x000005fc                __do_copy_data
 .init4         0x00000616       0x10 c:/program files (x86)/atmel/studio/7.0/toolchain/avr8/avr8-gnu-toolchain/bin/../lib/gcc/avr/5.4.0/avr51\libgcc.a(_clear_bss.o)
                0x00000616                __do_clear_bss
 *(.init4)
 *(.init5)
 *(.init5)
 *(.init6)
 .init6         0x00000626       0x16 c:/program files (x86)/atmel/studio/7.0/toolchain/avr8/avr8-gnu-toolchain/bin/../lib/gcc/avr/5.4.0/avr51\libgcc.a(_ctors.o)
                0x00000626                __do_global_ctors
 *(.init6)
 *(.init7)
 *(.init7)
 *(.init8)
 *(.init8)
 *(.init9)
 .init9         0x0000063c        0x8 C:/Program Files (x86)/Atmel/Studio/7.0/Packs/Atmel/ATmega_DFP/1.3.300/gcc/dev/at90can128/avr51/crtat90can128.o
 *(.init9)
 *(.text)
 .text          0x00000644        0x2 C:/Program Files (x86)/Atmel/Studio/7.0/Packs/Atmel/ATmega_DFP/1.3.300/gcc/dev/at90can128/avr51/crtat90can128.o
                0x00000644                __vector_22
                0x00000644                __vector_28
                0x00000644                __vector_1
                0x00000644                __vector_34
                0x00000644                __vector_24
                0x00000644                __vector_12
                0x00000644                __bad_interrupt
                0x00000644                __vector_31
                0x00000644                __vector_3
                0x00000644                __vector_23
                0x00000644                __vector_30
                0x00000644                __vector_11
                0x00000644                __vector_13
                0x00000644                __vector_17
                0x00000644                __vector_19
                0x00000644                __vector_27
                0x00000644                __vector_4
                0x00000644                __vector_9
                0x00000644                __vector_2
                0x00000644                __vector_21
                0x00000644                __vector_15
                0x00000644                __vector_36
                0x00000644                __vector_29
                0x00000644                __vector_26
                0x00000644                __vector_14
                0x00000644                __vector_10
                0x00000646                . = ALIGN (0x2)
 *(.text.*)
 .text._ZN9GAINClassC2Ev
                0x00000646       0x78 922/GAINClass.o
                0x00000646                _ZN9GAINClassC1Ev
                0x00000646                _ZN9GAINClassC2Ev
 .text._ZN9GAINClass18setFactoryDefaultsEjbb
                0x000006be       0xd4 922/GAINClass.o
                0x000006be                _ZN9GAINClass18setFactoryDefaultsEjbb
 .text._ZN9GAINClass34setPersistentConfigurationDefaultsEv
                0x00000792       0x6a 922/GAINClass.o
                0x00000792                _ZN9GAINClass34setPersistentConfigurationDefaultsEv
 .text._ZN9GAINClass26syncConfigurationWithPanelEv
                0x000007fc      0x136 922/GAINClass.o
                0x000007fc                _ZN9GAINClass26syncConfigurationWithPanelEv
 .text._ZN9GAINClass26resyncWithCycleDescriptionEh
                0x00000932       0x9a 922/GAINClass.o
                0x00000932                _ZN9GAINClass26resyncWithCycleDescriptionEh
 .text._ZN9GAINClass18abortCateringCycleEv
                0x000009cc       0x62 922/GAINClass.o
                0x000009cc                _ZN9GAINClass18abortCateringCycleEv
 .text._ZN9GAINClass11setFanStateEb
                0x00000a2e       0xf4 922/GAINClass.o
                0x00000a2e                _ZN9GAINClass11setFanStateEb
 .text._ZN9GAINClass13setValveStateEb
                0x00000b22       0x54 922/GAINClass.o
                0x00000b22                _ZN9GAINClass13setValveStateEb
 .text._ZN9GAINClass14setHeaterStateEbb
                0x00000b76      0x108 922/GAINClass.o
                0x00000b76                _ZN9GAINClass14setHeaterStateEbb
 .text._ZN9GAINClass16saveCurrentStateEv
                0x00000c7e       0x4a 922/GAINClass.o
                0x00000c7e                _ZN9GAINClass16saveCurrentStateEv
 .text._ZNK9GAINClass12getDoorStateEv
                0x00000cc8        0xa 922/GAINClass.o
                0x00000cc8                _ZNK9GAINClass12getDoorStateEv
 .text._ZN9GAINClass19GAINGetWaitingFlagsEv
                0x00000cd2       0x24 922/GAINClass.o
                0x00000cd2                _ZN9GAINClass19GAINGetWaitingFlagsEv
 .text._ZN9GAINClass11GAINIsReadyEv
                0x00000cf6        0xe 922/GAINClass.o
                0x00000cf6                _ZN9GAINClass11GAINIsReadyEv
 .text._ZN9GAINClass15GAINGetHMIFlagsEv
                0x00000d04       0x74 922/GAINClass.o
                0x00000d04                _ZN9GAINClass15GAINGetHMIFlagsEv
 .text._ZN9GAINClass18handleInStateEventER5eventlRb
                0x00000d78      0x85c 922/GAINClass.o
                0x00000d78                _ZN9GAINClass18handleInStateEventER5eventlRb
 .text._ZN9GAINClass21handleStateStandbyOFFEj
                0x000015d4      0x12e 922/GAINClass.o
                0x000015d4                _ZN9GAINClass21handleStateStandbyOFFEj
 .text._ZN9GAINClass27handleStatePrepareStandbyONEj
                0x00001702      0x17c 922/GAINClass.o
                0x00001702                _ZN9GAINClass27handleStatePrepareStandbyONEj
 .text._ZN9GAINClass20handleStateStandbyONEj
                0x0000187e      0x20a 922/GAINClass.o
                0x0000187e                _ZN9GAINClass20handleStateStandbyONEj
 .text._ZN9GAINClass18handleStateDelayedEj
                0x00001a88      0x364 922/GAINClass.o
                0x00001a88                _ZN9GAINClass18handleStateDelayedEj
 .text._ZN9GAINClass19handleStateFinishedEj
                0x00001dec      0x146 922/GAINClass.o
                0x00001dec                _ZN9GAINClass19handleStateFinishedEj
 .text._ZN9GAINClass16handleStateErrorEj
                0x00001f32      0x120 922/GAINClass.o
                0x00001f32                _ZN9GAINClass16handleStateErrorEj
 .text._ZN9GAINClass22handleStateMaintenanceEj
                0x00002052       0xec 922/GAINClass.o
                0x00002052                _ZN9GAINClass22handleStateMaintenanceEj
 .text._ZN9GAINClass15resyncWithPanelEh
                0x0000213e       0xe8 922/GAINClass.o
                0x0000213e                _ZN9GAINClass15resyncWithPanelEh
 .text._ZN9GAINClass17handleStateResumeEj
                0x00002226      0x154 922/GAINClass.o
                0x00002226                _ZN9GAINClass17handleStateResumeEj
 .text._ZN9GAINClass22handleStateInterruptedEj
                0x0000237a      0x3ee 922/GAINClass.o
                0x0000237a                _ZN9GAINClass22handleStateInterruptedEj
 .text._ZN9GAINClass25handleStateStoppedProcessEj
                0x00002768      0x220 922/GAINClass.o
                0x00002768                _ZN9GAINClass25handleStateStoppedProcessEj
 .text._ZN9GAINClass22handleStateSelfProtectEj
                0x00002988      0x418 922/GAINClass.o
                0x00002988                _ZN9GAINClass22handleStateSelfProtectEj
 .text._ZN9GAINClass21getAmbientTemperatureEb
                0x00002da0       0x4a 922/GAINClass.o
                0x00002da0                _ZN9GAINClass21getAmbientTemperatureEb
 .text._ZN9GAINClass21getCabinetTemperatureEb
                0x00002dea      0x19a 922/GAINClass.o
                0x00002dea                _ZN9GAINClass21getCabinetTemperatureEb
 .text._ZN9GAINClass23handleStateStandbyReadyEj
                0x00002f84      0x224 922/GAINClass.o
                0x00002f84                _ZN9GAINClass23handleStateStandbyReadyEj
 .text._ZN9GAINClass21getSteamerTemperatureEb
                0x000031a8      0x200 922/GAINClass.o
                0x000031a8                _ZN9GAINClass21getSteamerTemperatureEb
 .text._ZN9GAINClass21handlePowerOnSelftestEv
                0x000033a8      0x234 922/GAINClass.o
                0x000033a8                _ZN9GAINClass21handlePowerOnSelftestEv
 .text._ZN9GAINClass21handleStateInitializeEj
                0x000035dc      0x20c 922/GAINClass.o
                0x000035dc                _ZN9GAINClass21handleStateInitializeEj
 .text._ZN9GAINClass16getWaterPressureEb
                0x000037e8       0xe2 922/GAINClass.o
                0x000037e8                _ZN9GAINClass16getWaterPressureEb
 .text._ZN9GAINClass13handleStateONEj
                0x000038ca      0xedc 922/GAINClass.o
                0x000038ca                _ZN9GAINClass13handleStateONEj
 .text._GLOBAL__sub_I_GAIN
                0x000047a6        0xa 922/GAINClass.o
 .text._Z18checkCommunicationv
                0x000047b0       0xc2 922/GAINClass.o
                0x000047b0                _Z18checkCommunicationv
 .text._Z10checkEventv
                0x00004872      0x794 922/GAINClass.o
                0x00004872                _Z10checkEventv
 .text._ZN9GAINClass20handleStateHMIUpdateEj
                0x00005006       0x80 922/GAINClass.o
                0x00005006                _ZN9GAINClass20handleStateHMIUpdateEj
 .text._ZN9GAINClass25handleStateFirmwareUpdateEj
                0x00005086       0x60 922/GAINClass.o
                0x00005086                _ZN9GAINClass25handleStateFirmwareUpdateEj
 .text._ZN9GAINClass15handleGAINEventER5event
                0x000050e6      0x132 922/GAINClass.o
                0x000050e6                _ZN9GAINClass15handleGAINEventER5event
 .text._ZN9GAINClass3runEv
                0x00005218      0x1ec 922/GAINClass.o
                0x00005218                _ZN9GAINClass3runEv
 .text.__cxa_pure_virtual
                0x00005404        0x2 Application/eDevice.o
                0x00005404                __cxa_pure_virtual
 .text._ZdlPv   0x00005406        0x6 Application/eDevice.o
                0x00005406                _ZdlPv
 .text._ZN7eDevice10initializeEv
                0x0000540c       0x1a Application/eDevice.o
                0x0000540c                _ZN7eDevice10initializeEv
 .text._GLOBAL__sub_I__ZN7eDevice6eepromE
                0x00005426       0x26 Application/eDevice.o
 .text._GLOBAL__sub_D__ZN7eDevice6eepromE
                0x0000544c       0x14 Application/eDevice.o
 .text._ZN16eDeviceDigitalIOC2Ev
                0x00005460        0x2 Application/eDeviceDigitalIO.o
                0x00005460                _ZN16eDeviceDigitalIOC2Ev
                0x00005460                _ZN16eDeviceDigitalIOC1Ev
 .text._Z16initializeEventsv
                0x00005462       0x2e Application/eDeviceEvent.o
                0x00005462                _Z16initializeEventsv
 .text._Z12waitForEventR5eventjjl
                0x00005490      0x1c6 Application/eDeviceEvent.o
                0x00005490                _Z12waitForEventR5eventjjl
 .text._Z13sendEventSelfRK5event
                0x00005656       0xa2 Application/eDeviceEvent.o
                0x00005656                _Z13sendEventSelfRK5event
 .text._Z13sendEventSelfjjRK9eventData
                0x000056f8       0x4a Application/eDeviceEvent.o
                0x000056f8                _Z13sendEventSelfjjRK9eventData
 .text._GLOBAL__sub_I_sizeOfEventQueue
                0x00005742       0x2a Application/eDeviceEvent.o
 .text._ZN10eDeviceNVMC2Eh
                0x0000576c        0x6 Application/eDeviceNVM.o
                0x0000576c                _ZN10eDeviceNVMC2Eh
                0x0000576c                _ZN10eDeviceNVMC1Eh
 .text._ZN10eDevicePWMC2Ev
                0x00005772        0xa Application/eDevicePWM.o
                0x00005772                _ZN10eDevicePWMC1Ev
                0x00005772                _ZN10eDevicePWMC2Ev
 .text._ZN12serialStream13dataAvailableEv
                0x0000577c        0xa Application/eDeviceSerialStream.o
                0x0000577c                _ZN12serialStream13dataAvailableEv
 .text._ZN12serialStream8readDataEPvil
                0x00005786       0x12 Application/eDeviceSerialStream.o
                0x00005786                _ZN12serialStream8readDataEPvil
 .text._ZN12serialStream9writeDataEPKvi
                0x00005798        0xa Application/eDeviceSerialStream.o
                0x00005798                _ZN12serialStream9writeDataEPKvi
 .text._ZN12serialStreamD2Ev
                0x000057a2        0xe Application/eDeviceSerialStream.o
                0x000057a2                _ZN12serialStreamD1Ev
                0x000057a2                _ZN12serialStreamD2Ev
 .text._ZN12serialStreamD0Ev
                0x000057b0       0x1c Application/eDeviceSerialStream.o
                0x000057b0                _ZN12serialStreamD0Ev
 .text._ZN12serialStreamC2Eh
                0x000057cc       0x1e Application/eDeviceSerialStream.o
                0x000057cc                _ZN12serialStreamC2Eh
                0x000057cc                _ZN12serialStreamC1Eh
 .text._ZN12serialStream4openEv
                0x000057ea       0x28 Application/eDeviceSerialStream.o
                0x000057ea                _ZN12serialStream4openEv
 .text._ZN6streamC2Ev
                0x00005812       0x26 Application/eDeviceStream.o
                0x00005812                _ZN6streamC1Ev
                0x00005812                _ZN6streamC2Ev
 .text._ZN6streamD2Ev
                0x00005838        0x2 Application/eDeviceStream.o
                0x00005838                _ZN6streamD2Ev
                0x00005838                _ZN6streamD1Ev
 .text._ZN6stream4readERc
                0x0000583a       0x28 Application/eDeviceStream.o
                0x0000583a                _ZN6stream4readERc
 .text._ZN15MaintenanceToolC2Ev
                0x00005862       0x16 Common/MaintenanceTool.o
                0x00005862                _ZN15MaintenanceToolC1Ev
                0x00005862                _ZN15MaintenanceToolC2Ev
 .text._ZN15MaintenanceTool19updateAnalogueValueEhf
                0x00005878       0x16 Common/MaintenanceTool.o
                0x00005878                _ZN15MaintenanceTool19updateAnalogueValueEhf
 .text._ZN15MaintenanceTool24handleGAINCommandConnectER6streamR17GAINMessageHeader
                0x0000588e       0x60 Common/MaintenanceTool.o
                0x0000588e                _ZN15MaintenanceTool24handleGAINCommandConnectER6streamR17GAINMessageHeader
 .text._ZN15MaintenanceTool27handleGAINCommandDisconnectER6streamR17GAINMessageHeader
                0x000058ee       0x5a Common/MaintenanceTool.o
                0x000058ee                _ZN15MaintenanceTool27handleGAINCommandDisconnectER6streamR17GAINMessageHeader
 .text._ZN15MaintenanceTool25handleGAINCommandResetNVMER6streamR17GAINMessageHeader
                0x00005948       0x94 Common/MaintenanceTool.o
                0x00005948                _ZN15MaintenanceTool25handleGAINCommandResetNVMER6streamR17GAINMessageHeader
 .text._ZN15MaintenanceTool17calculateChecksumEjjPKv
                0x000059dc       0x36 Common/MaintenanceTool.o
                0x000059dc                _ZN15MaintenanceTool17calculateChecksumEjjPKv
 .text._ZN15MaintenanceTool17calculateChecksumERK17GAINMessageHeader
                0x00005a12        0xe Common/MaintenanceTool.o
                0x00005a12                _ZN15MaintenanceTool17calculateChecksumERK17GAINMessageHeader
 .text._ZN15MaintenanceTool25notifyGAINCommandReceivedER6streamR17GAINMessageHeaderb
                0x00005a20       0x84 Common/MaintenanceTool.o
                0x00005a20                _ZN15MaintenanceTool25notifyGAINCommandReceivedER6streamR17GAINMessageHeaderb
 .text._ZN15MaintenanceTool23notifyGAINQueryReceivedER6streamR17GAINMessageHeaderb
                0x00005aa4       0x84 Common/MaintenanceTool.o
                0x00005aa4                _ZN15MaintenanceTool23notifyGAINQueryReceivedER6streamR17GAINMessageHeaderb
 .text._ZN15MaintenanceTool15GAINNotifyStateER6streamhh
                0x00005b28      0x132 Common/MaintenanceTool.o
                0x00005b28                _ZN15MaintenanceTool15GAINNotifyStateER6streamhh
 .text._ZN15MaintenanceTool25GAINNotifyControllerStateER6stream
                0x00005c5a      0x11c Common/MaintenanceTool.o
                0x00005c5a                _ZN15MaintenanceTool25GAINNotifyControllerStateER6stream
 .text._ZN15MaintenanceTool24GAINNotifyAnalogueValuesER6stream
                0x00005d76      0x10a Common/MaintenanceTool.o
                0x00005d76                _ZN15MaintenanceTool24GAINNotifyAnalogueValuesER6stream
 .text._ZN15MaintenanceTool19GAINNotifyUsageDataER6stream
                0x00005e80      0x116 Common/MaintenanceTool.o
                0x00005e80                _ZN15MaintenanceTool19GAINNotifyUsageDataER6stream
 .text._ZN15MaintenanceTool18handlePeriodicTaskER6streamhh
                0x00005f96      0x16e Common/MaintenanceTool.o
                0x00005f96                _ZN15MaintenanceTool18handlePeriodicTaskER6streamhh
 .text._ZN15MaintenanceTool35handleGAINCommandSetControllerStateER6streamR17GAINMessageHeader
                0x00006104      0x174 Common/MaintenanceTool.o
                0x00006104                _ZN15MaintenanceTool35handleGAINCommandSetControllerStateER6streamR17GAINMessageHeader
 .text._ZN15MaintenanceTool33handleGAINCommandSetConfigurationER6streamR17GAINMessageHeader
                0x00006278      0x148 Common/MaintenanceTool.o
                0x00006278                _ZN15MaintenanceTool33handleGAINCommandSetConfigurationER6streamR17GAINMessageHeader
 .text._ZN15MaintenanceTool36handleGAINCommandSetCycleDescriptionER6streamR17GAINMessageHeader
                0x000063c0      0x138 Common/MaintenanceTool.o
                0x000063c0                _ZN15MaintenanceTool36handleGAINCommandSetCycleDescriptionER6streamR17GAINMessageHeader
 .text._ZN15MaintenanceTool27handleGAINCommandSetNSDDataER6streamR17GAINMessageHeader
                0x000064f8      0x1d8 Common/MaintenanceTool.o
                0x000064f8                _ZN15MaintenanceTool27handleGAINCommandSetNSDDataER6streamR17GAINMessageHeader
 .text._ZN15MaintenanceTool17handleGAINCommandER6stream
                0x000066d0      0x16c Common/MaintenanceTool.o
                0x000066d0                _ZN15MaintenanceTool17handleGAINCommandER6stream
 .text._ZN15MaintenanceTool19handleGAINQueryInfoER6streamR17GAINMessageHeader
                0x0000683c      0x15c Common/MaintenanceTool.o
                0x0000683c                _ZN15MaintenanceTool19handleGAINQueryInfoER6streamR17GAINMessageHeader
 .text._ZN15MaintenanceTool28handleGAINQueryConfigurationER6streamR17GAINMessageHeader
                0x00006998      0x302 Common/MaintenanceTool.o
                0x00006998                _ZN15MaintenanceTool28handleGAINQueryConfigurationER6streamR17GAINMessageHeader
 .text._ZN15MaintenanceTool23handleGAINQueryFaultLogER6streamR17GAINMessageHeader
                0x00006c9a      0x222 Common/MaintenanceTool.o
                0x00006c9a                _ZN15MaintenanceTool23handleGAINQueryFaultLogER6streamR17GAINMessageHeader
 .text._ZN15MaintenanceTool15handleGAINQueryER6stream
                0x00006ebc      0x106 Common/MaintenanceTool.o
                0x00006ebc                _ZN15MaintenanceTool15handleGAINQueryER6stream
 .text._ZN15MaintenanceTool19handleCommunicationER6stream
                0x00006fc2       0xc8 Common/MaintenanceTool.o
                0x00006fc2                _ZN15MaintenanceTool19handleCommunicationER6stream
 .text._ZN19PersistenceServices21writeCycleDescriptionER16CycleDescriptionh
                0x0000708a       0x3a Common/PersistenceServices.o
                0x0000708a                _ZN19PersistenceServices21writeCycleDescriptionER16CycleDescriptionh
 .text._ZN19PersistenceServices8logErrorEjj
                0x000070c4        0x2 Common/PersistenceServices.o
                0x000070c4                _ZN19PersistenceServices8logErrorEjj
 .text._ZN19PersistenceServices26restoreWorkingStateForGAINER16GAINWorkingState
                0x000070c6       0x3c Common/PersistenceServices.o
                0x000070c6                _ZN19PersistenceServices26restoreWorkingStateForGAINER16GAINWorkingState
 .text._ZN19PersistenceServices19initializeErrorAreaEv
                0x00007102        0x2 Common/PersistenceServices.o
                0x00007102                _ZN19PersistenceServices19initializeErrorAreaEv
 .text._ZN19PersistenceServices25initializeMaintenanceAreaEv
                0x00007104        0x2 Common/PersistenceServices.o
                0x00007104                _ZN19PersistenceServices25initializeMaintenanceAreaEv
 .text._ZN19PersistenceServices12getUsageDataEPm
                0x00007106       0x2e Common/PersistenceServices.o
                0x00007106                _ZN19PersistenceServices12getUsageDataEPm
 .text._ZNK19PersistenceServices12getUsageTimeEh
                0x00007134       0x60 Common/PersistenceServices.o
                0x00007134                _ZNK19PersistenceServices12getUsageTimeEh
 .text._ZN19PersistenceServices15updateUsageTimeEhb
                0x00007194      0x184 Common/PersistenceServices.o
                0x00007194                _ZN19PersistenceServices15updateUsageTimeEhb
 .text._ZN19PersistenceServices18updateUsageCounterEhl
                0x00007318       0xac Common/PersistenceServices.o
                0x00007318                _ZN19PersistenceServices18updateUsageCounterEhl
 .text._ZN19PersistenceServices21isPersistentAreaValidEhR9NVMHeaderm
                0x000073c4       0x94 Common/PersistenceServices.o
                0x000073c4                _ZN19PersistenceServices21isPersistentAreaValidEhR9NVMHeaderm
 .text._ZN19PersistenceServices25readConfigurationDataAreaER17ConfigurationData
                0x00007458       0x78 Common/PersistenceServices.o
                0x00007458                _ZN19PersistenceServices25readConfigurationDataAreaER17ConfigurationData
 .text._ZN19PersistenceServices23readCycleDictionaryAreaER15CycleDictionary
                0x000074d0       0x66 Common/PersistenceServices.o
                0x000074d0                _ZN19PersistenceServices23readCycleDictionaryAreaER15CycleDictionary
 .text._ZN19PersistenceServices20readCycleDescriptionER16CycleDescriptionh
                0x00007536       0x60 Common/PersistenceServices.o
                0x00007536                _ZN19PersistenceServices20readCycleDescriptionER16CycleDescriptionh
 .text._ZN19PersistenceServices35readPersistentConfigurationDataAreaER27PersistentConfigurationData
                0x00007596       0x80 Common/PersistenceServices.o
                0x00007596                _ZN19PersistenceServices35readPersistentConfigurationDataAreaER27PersistentConfigurationData
 .text._ZN19PersistenceServices24invalidatePersistentAreaEhR9NVMHeader
                0x00007616       0x64 Common/PersistenceServices.o
                0x00007616                _ZN19PersistenceServices24invalidatePersistentAreaEhR9NVMHeader
 .text._ZN19PersistenceServices41invalidatePersistentConfigurationDataAreaEv
                0x0000767a        0xa Common/PersistenceServices.o
                0x0000767a                _ZN19PersistenceServices41invalidatePersistentConfigurationDataAreaEv
 .text._ZN19PersistenceServices24clearWorkingStateForGAINEv
                0x00007684       0x20 Common/PersistenceServices.o
                0x00007684                _ZN19PersistenceServices24clearWorkingStateForGAINEv
 .text._ZN19PersistenceServices33validWorkingStateForGAINAvailableElb
                0x000076a4      0x150 Common/PersistenceServices.o
                0x000076a4                _ZN19PersistenceServices33validWorkingStateForGAINAvailableElb
 .text._ZN19PersistenceServices22validatePersistentAreaEhR9NVMHeaderm
                0x000077f4       0x80 Common/PersistenceServices.o
                0x000077f4                _ZN19PersistenceServices22validatePersistentAreaEhR9NVMHeaderm
 .text._ZN19PersistenceServices26writeConfigurationDataAreaER17ConfigurationData
                0x00007874       0x64 Common/PersistenceServices.o
                0x00007874                _ZN19PersistenceServices26writeConfigurationDataAreaER17ConfigurationData
 .text._ZN19PersistenceServices24writeCycleDictionaryAreaER15CycleDictionary
                0x000078d8       0x5c Common/PersistenceServices.o
                0x000078d8                _ZN19PersistenceServices24writeCycleDictionaryAreaER15CycleDictionary
 .text._ZN19PersistenceServices36writePersistentConfigurationDataAreaER27PersistentConfigurationData
                0x00007934       0x76 Common/PersistenceServices.o
                0x00007934                _ZN19PersistenceServices36writePersistentConfigurationDataAreaER27PersistentConfigurationData
 .text._ZN19PersistenceServices23saveWorkingStateForGAINER16GAINWorkingState
                0x000079aa       0x98 Common/PersistenceServices.o
                0x000079aa                _ZN19PersistenceServices23saveWorkingStateForGAINER16GAINWorkingState
 .text._ZN19PersistenceServices12eraseNVMAreaEhlm
                0x00007a42      0x172 Common/PersistenceServices.o
                0x00007a42                _ZN19PersistenceServices12eraseNVMAreaEhlm
 .text._ZN19PersistenceServices17initializeNVMAreaEhR9NVMHeaderm
                0x00007bb4       0x5a Common/PersistenceServices.o
                0x00007bb4                _ZN19PersistenceServices17initializeNVMAreaEhR9NVMHeaderm
 .text._ZN19PersistenceServices19initializeUsageAreaEv
                0x00007c0e       0x1a Common/PersistenceServices.o
                0x00007c0e                _ZN19PersistenceServices19initializeUsageAreaEv
 .text._ZN19PersistenceServices21checkAndRepairNVMAreaEhR9NVMHeaderm
                0x00007c28       0x4a Common/PersistenceServices.o
                0x00007c28                _ZN19PersistenceServices21checkAndRepairNVMAreaEhR9NVMHeaderm
 .text._ZN19PersistenceServices28checkAndRepairNVMConsistencyEv
                0x00007c72       0x5a Common/PersistenceServices.o
                0x00007c72                _ZN19PersistenceServices28checkAndRepairNVMConsistencyEv
 .text._GLOBAL__sub_I_validMagic
                0x00007ccc        0x6 Common/PersistenceServices.o
 .text._ZN12ControlPanelC2Ev
                0x00007cd2       0x1c ControlPanel/ControlPanel.o
                0x00007cd2                _ZN12ControlPanelC1Ev
                0x00007cd2                _ZN12ControlPanelC2Ev
 .text._ZN12ControlPanel19setPowerSupplyStateEb
                0x00007cee       0x18 ControlPanel/ControlPanel.o
                0x00007cee                _ZN12ControlPanel19setPowerSupplyStateEb
 .text._ZNK12ControlPanel19getPowerSupplyStateEv
                0x00007d06        0xa ControlPanel/ControlPanel.o
                0x00007d06                _ZNK12ControlPanel19getPowerSupplyStateEv
 .text._ZN12ControlPanel11checkEventsEv
                0x00007d10      0x2f4 ControlPanel/ControlPanel.o
                0x00007d10                _ZN12ControlPanel11checkEventsEv
 .text._ZN12ControlPanel18handlePeriodicTaskEv
                0x00008004        0xc ControlPanel/ControlPanel.o
                0x00008004                _ZN12ControlPanel18handlePeriodicTaskEv
 .text._ZN12ControlPanel4waitEi
                0x00008010       0x90 ControlPanel/ControlPanel.o
                0x00008010                _ZN12ControlPanel4waitEi
 .text._ZN12ControlPanel11sendRequestERK18panelRequestHeaderPKva
                0x000080a0       0x62 ControlPanel/ControlPanel.o
                0x000080a0                _ZN12ControlPanel11sendRequestERK18panelRequestHeaderPKva
 .text._ZN12ControlPanel16syncWithGAINInfoEjj
                0x00008102       0xc8 ControlPanel/ControlPanel.o
                0x00008102                _ZN12ControlPanel16syncWithGAINInfoEjj
 .text._ZN12ControlPanel13syncWithStateEhj
                0x000081ca       0x78 ControlPanel/ControlPanel.o
                0x000081ca                _ZN12ControlPanel13syncWithStateEhj
 .text._ZN12ControlPanel24syncWithCycleDescriptionEhRK16CycleDescription
                0x00008242       0x70 ControlPanel/ControlPanel.o
                0x00008242                _ZN12ControlPanel24syncWithCycleDescriptionEhRK16CycleDescription
 .text._ZN12ControlPanel26syncWithCycleDescriptionIDEhh
                0x000082b2       0x62 ControlPanel/ControlPanel.o
                0x000082b2                _ZN12ControlPanel26syncWithCycleDescriptionIDEhh
 .text._ZN12ControlPanel19syncWithTemperatureEii
                0x00008314       0x66 ControlPanel/ControlPanel.o
                0x00008314                _ZN12ControlPanel19syncWithTemperatureEii
 .text._ZN12ControlPanel17syncWithDelayTimeEih
                0x0000837a       0x64 ControlPanel/ControlPanel.o
                0x0000837a                _ZN12ControlPanel17syncWithDelayTimeEih
 .text._ZN12ControlPanel21syncWithRemainingTimeEih
                0x000083de       0x5c ControlPanel/ControlPanel.o
                0x000083de                _ZN12ControlPanel21syncWithRemainingTimeEih
 .text._ZN12ControlPanel21syncWithRemainingTimeElh
                0x0000843a       0x46 ControlPanel/ControlPanel.o
                0x0000843a                _ZN12ControlPanel21syncWithRemainingTimeElh
 .text._ZN12ControlPanel20syncWithNetworkStateEv
                0x00008480       0x8c ControlPanel/ControlPanel.o
                0x00008480                _ZN12ControlPanel20syncWithNetworkStateEv
 .text._ZN12ControlPanel22syncWithFirmwareUpdateEv
                0x0000850c       0x54 ControlPanel/ControlPanel.o
                0x0000850c                _ZN12ControlPanel22syncWithFirmwareUpdateEv
 .text._ZN12ControlPanel6updateEb
                0x00008560      0x39c ControlPanel/ControlPanel.o
                0x00008560                _ZN12ControlPanel6updateEb
 .text.__vector_25
                0x000088fc      0x190 Core/coreADConverter.o
                0x000088fc                __vector_25
 .text.coreADConverterInitialize
                0x00008a8c       0x56 Core/coreADConverter.o
                0x00008a8c                coreADConverterInitialize
 .text.coreADConverterDisableAutoTrigger
                0x00008ae2       0x16 Core/coreADConverter.o
                0x00008ae2                coreADConverterDisableAutoTrigger
 .text.coreADConverterEnableAutoTrigger
                0x00008af8       0xda Core/coreADConverter.o
                0x00008af8                coreADConverterEnableAutoTrigger
 .text.__vector_32
                0x00008bd2       0x5c Core/coreAsyncSerial.o
                0x00008bd2                __vector_32
 .text.__vector_33
                0x00008c2e       0x68 Core/coreAsyncSerial.o
                0x00008c2e                __vector_33
 .text.coreAsyncSerialInitialize
                0x00008c96       0x20 Core/coreAsyncSerial.o
                0x00008c96                coreAsyncSerialInitialize
 .text.coreAsyncSerialOpen
                0x00008cb6       0x6a Core/coreAsyncSerial.o
                0x00008cb6                coreAsyncSerialOpen
 .text.coreAsyncSerialDataAvailable
                0x00008d20        0xe Core/coreAsyncSerial.o
                0x00008d20                coreAsyncSerialDataAvailable
 .text.coreAsyncSerialRead
                0x00008d2e      0x13a Core/coreAsyncSerial.o
                0x00008d2e                coreAsyncSerialRead
 .text.coreAsyncSerialWrite
                0x00008e68       0x5e Core/coreAsyncSerial.o
                0x00008e68                coreAsyncSerialWrite
 .text.coreGANGetMessageObjectID
                0x00008ec6       0x32 Core/coreCAN.o
                0x00008ec6                coreGANGetMessageObjectID
 .text.__vector_18
                0x00008ef8      0x10a Core/coreCAN.o
                0x00008ef8                __vector_18
 .text.coreCANOpen
                0x00009002        0x4 Core/coreCAN.o
                0x00009002                coreCANOpen
 .text.coreCANClearMessageObject
                0x00009006       0x3e Core/coreCAN.o
                0x00009006                coreCANClearMessageObject
 .text.coreCANInitialize
                0x00009044       0x88 Core/coreCAN.o
                0x00009044                coreCANInitialize
 .text.coreCANReset
                0x000090cc       0x16 Core/coreCAN.o
                0x000090cc                coreCANReset
 .text.coreCANGetResetCounter
                0x000090e2        0xa Core/coreCAN.o
                0x000090e2                coreCANGetResetCounter
 .text.coreCANGetBusOffState
                0x000090ec        0xa Core/coreCAN.o
                0x000090ec                coreCANGetBusOffState
 .text.coreCANResetBusOffState
                0x000090f6        0x4 Core/coreCAN.o
                0x000090f6                coreCANResetBusOffState
 .text.coreCANGetTEC
                0x000090fa        0x6 Core/coreCAN.o
                0x000090fa                coreCANGetTEC
 .text.coreCANGetREC
                0x00009100        0x6 Core/coreCAN.o
                0x00009100                coreCANGetREC
 .text.coreCANDataAvailable
                0x00009106        0x6 Core/coreCAN.o
                0x00009106                coreCANDataAvailable
 .text.coreCANReadMessage
                0x0000910c      0x1c2 Core/coreCAN.o
                0x0000910c                coreCANReadMessage
 .text.coreCANWriteMessage
                0x000092ce       0xfa Core/coreCAN.o
                0x000092ce                coreCANWriteMessage
 .text.__vector_5
                0x000093c8       0x6a Core/coreController.o
                0x000093c8                __vector_5
 .text.__vector_6
                0x00009432       0x6a Core/coreController.o
                0x00009432                __vector_6
 .text.__vector_7
                0x0000949c       0x6a Core/coreController.o
                0x0000949c                __vector_7
 .text.__vector_8
                0x00009506       0x6a Core/coreController.o
                0x00009506                __vector_8
 .text.coreControllerInitialize
                0x00009570       0x44 Core/coreController.o
                0x00009570                coreControllerInitialize
 .text.coreControllerReset
                0x000095b4       0x1e Core/coreController.o
                0x000095b4                coreControllerReset
 .text.coreControllerEnableInterrupts
                0x000095d2        0x4 Core/coreController.o
                0x000095d2                coreControllerEnableInterrupts
 .text.coreControllerEnableExternalInterrupt
                0x000095d6       0x88 Core/coreController.o
                0x000095d6                coreControllerEnableExternalInterrupt
 .text.coreControllerDisableExternalInterrupt
                0x0000965e       0x70 Core/coreController.o
                0x0000965e                coreControllerDisableExternalInterrupt
 .text.coreControllerEnableWatchdog
                0x000096ce       0x2e Core/coreController.o
                0x000096ce                coreControllerEnableWatchdog
 .text.coreControllerDisableWatchdog
                0x000096fc       0x28 Core/coreController.o
                0x000096fc                coreControllerDisableWatchdog
 .text.coreControllerEnterBootloader
                0x00009724       0x12 Core/coreController.o
                0x00009724                coreControllerEnterBootloader
 .text.coreI2CInitialize
                0x00009736       0x4e Core/coreI2C.o
                0x00009736                coreI2CInitialize
 .text.coreI2COpen
                0x00009784       0x7e Core/coreI2C.o
                0x00009784                coreI2COpen
 .text.coreI2CAbortOperation
                0x00009802       0x44 Core/coreI2C.o
                0x00009802                coreI2CAbortOperation
 .text.coreI2CMasterSend
                0x00009846       0x7e Core/coreI2C.o
                0x00009846                coreI2CMasterSend
 .text.coreI2CWrite
                0x000098c4        0x8 Core/coreI2C.o
                0x000098c4                coreI2CWrite
 .text.coreI2CMasterReceive
                0x000098cc       0x7e Core/coreI2C.o
                0x000098cc                coreI2CMasterReceive
 .text.coreI2CRead
                0x0000994a        0x8 Core/coreI2C.o
                0x0000994a                coreI2CRead
 .text.coreI2CMasterReceiveFromRegister
                0x00009952       0x84 Core/coreI2C.o
                0x00009952                coreI2CMasterReceiveFromRegister
 .text.coreI2CReadFromRegister
                0x000099d6       0x12 Core/coreI2C.o
                0x000099d6                coreI2CReadFromRegister
 .text.__vector_35
                0x000099e8      0x2ea Core/coreI2C.o
                0x000099e8                __vector_35
 .text.coreNVMSendInstructionSPI
                0x00009cd2       0x1c Core/coreNVM.o
 .text.coreNVMWaitUntilWrittenSPI
                0x00009cee       0x46 Core/coreNVM.o
 .text.coreNVMInitialize
                0x00009d34        0x4 Core/coreNVM.o
                0x00009d34                coreNVMInitialize
 .text.coreNVMRead
                0x00009d38      0x14c Core/coreNVM.o
                0x00009d38                coreNVMRead
 .text.coreNVMWrite
                0x00009e84      0x266 Core/coreNVM.o
                0x00009e84                coreNVMWrite
 .text.corePortsConfigurePort
                0x0000a0ea       0x3e Core/corePorts.o
                0x0000a0ea                corePortsConfigurePort
 .text.corePortsGetPort
                0x0000a128       0x3e Core/corePorts.o
                0x0000a128                corePortsGetPort
 .text.corePortsSetPort
                0x0000a166       0x3c Core/corePorts.o
                0x0000a166                corePortsSetPort
 .text.corePortsGetPortPin
                0x0000a1a2       0x6a Core/corePorts.o
                0x0000a1a2                corePortsGetPortPin
 .text.corePortsSetPortPin
                0x0000a20c       0x4c Core/corePorts.o
                0x0000a20c                corePortsSetPortPin
 .text.corePortsClearPortPin
                0x0000a258       0x4e Core/corePorts.o
                0x0000a258                corePortsClearPortPin
 .text.corePortsSetPortBit
                0x0000a2a6       0x30 Core/corePorts.o
                0x0000a2a6                corePortsSetPortBit
 .text.corePortsInitialize
                0x0000a2d6       0x8c Core/corePorts.o
                0x0000a2d6                corePortsInitialize
 .text.corePortsClearPortBit
                0x0000a362       0x32 Core/corePorts.o
                0x0000a362                corePortsClearPortBit
 .text.corePWMGetPWMDutyCycle
                0x0000a394       0x1c Core/corePWM.o
                0x0000a394                corePWMGetPWMDutyCycle
 .text.corePWMSetPWMDutyCycle
                0x0000a3b0       0x5a Core/corePWM.o
                0x0000a3b0                corePWMSetPWMDutyCycle
 .text.corePWMSetPWMOn
                0x0000a40a       0x46 Core/corePWM.o
                0x0000a40a                corePWMSetPWMOn
 .text.corePWMSetPWMOff
                0x0000a450       0x44 Core/corePWM.o
                0x0000a450                corePWMSetPWMOff
 .text.corePWMSetPWMFrequency
                0x0000a494      0x162 Core/corePWM.o
                0x0000a494                corePWMSetPWMFrequency
 .text.corePWMInitialize
                0x0000a5f6       0x6e Core/corePWM.o
                0x0000a5f6                corePWMInitialize
 .text.corePWMGetPWMState
                0x0000a664       0x1c Core/corePWM.o
                0x0000a664                corePWMGetPWMState
 .text.coreRTCInitialize
                0x0000a680        0x4 Core/coreRTC.o
                0x0000a680                coreRTCInitialize
 .text.__vector_20
                0x0000a684       0xec Core/coreSPI.o
                0x0000a684                __vector_20
 .text.coreSPIInitializeChannel
                0x0000a770       0x1a Core/coreSPI.o
                0x0000a770                coreSPIInitializeChannel
 .text.coreSPIInitialize
                0x0000a78a        0xc Core/coreSPI.o
                0x0000a78a                coreSPIInitialize
 .text.coreSPIOpen
                0x0000a796       0x30 Core/coreSPI.o
                0x0000a796                coreSPIOpen
 .text.coreSPIClose
                0x0000a7c6        0xc Core/coreSPI.o
                0x0000a7c6                coreSPIClose
 .text.coreSPISetChipSelectPin
                0x0000a7d2        0xe Core/coreSPI.o
                0x0000a7d2                coreSPISetChipSelectPin
 .text.coreSPISelect
                0x0000a7e0       0x10 Core/coreSPI.o
                0x0000a7e0                coreSPISelect
 .text.coreSPIRelease
                0x0000a7f0       0x10 Core/coreSPI.o
                0x0000a7f0                coreSPIRelease
 .text.coreSPIWriteData
                0x0000a800       0x9a Core/coreSPI.o
                0x0000a800                coreSPIWriteData
 .text.coreSPIReadData
                0x0000a89a       0x60 Core/coreSPI.o
                0x0000a89a                coreSPIReadData
 .text.coreSPITransferData
                0x0000a8fa       0x6e Core/coreSPI.o
                0x0000a8fa                coreSPITransferData
 .text.coreSPIWriteByte
                0x0000a968       0x20 Core/coreSPI.o
                0x0000a968                coreSPIWriteByte
 .text.coreSPITransferByte
                0x0000a988       0x2a Core/coreSPI.o
                0x0000a988                coreSPITransferByte
 .text.__vector_16
                0x0000a9b2      0x168 Core/coreSystemTimer.o
                0x0000a9b2                __vector_16
 .text.coreSystemTimerInitialize
                0x0000ab1a       0x14 Core/coreSystemTimer.o
                0x0000ab1a                coreSystemTimerInitialize
 .text.coreSystemTimerWait
                0x0000ab2e       0x78 Core/coreSystemTimer.o
                0x0000ab2e                coreSystemTimerWait
 .text.coreSystemTimerWaitWithCallback
                0x0000aba6       0xc0 Core/coreSystemTimer.o
                0x0000aba6                coreSystemTimerWaitWithCallback
 .text.coreSystemTimerSetTicks
                0x0000ac66       0x20 Core/coreSystemTimer.o
                0x0000ac66                coreSystemTimerSetTicks
 .text.coreSystemTimerSetSeconds
                0x0000ac86       0x20 Core/coreSystemTimer.o
                0x0000ac86                coreSystemTimerSetSeconds
 .text.eCoreInitialize
                0x0000aca6       0x26 Core/eCore.o
                0x0000aca6                eCoreInitialize
 .text.main     0x0000accc       0x1a main.o
                0x0000accc                main
 .text.coreNSD_readGAINConfigurationDataBlock
                0x0000ace6       0x90 Network/coreNSDStack.o
                0x0000ace6                coreNSD_readGAINConfigurationDataBlock
 .text.coreNSD_refreshGAINConfigurationDataBlock
                0x0000ad76       0x16 Network/coreNSDStack.o
                0x0000ad76                coreNSD_refreshGAINConfigurationDataBlock
 .text.coreNSD_getGAINConfigurationDataBlockAdress
                0x0000ad8c       0x14 Network/coreNSDStack.o
                0x0000ad8c                coreNSD_getGAINConfigurationDataBlockAdress
 .text.coreNSD_writeGAINConfigurationDataBlock
                0x0000ada0       0x66 Network/coreNSDStack.o
                0x0000ada0                coreNSD_writeGAINConfigurationDataBlock
 .text.coreNSD_flushGAINConfigurationDataBlock
                0x0000ae06       0x36 Network/coreNSDStack.o
                0x0000ae06                coreNSD_flushGAINConfigurationDataBlock
 .text.coreNSD_readGAINConfigurationData
                0x0000ae3c       0x64 Network/coreNSDStack.o
                0x0000ae3c                coreNSD_readGAINConfigurationData
 .text.coreNSD_writeGAINConfigurationData
                0x0000aea0       0x42 Network/coreNSDStack.o
                0x0000aea0                coreNSD_writeGAINConfigurationData
 .text.coreNSD_initialize
                0x0000aee2      0x2ec Network/coreNSDStack.o
                0x0000aee2                coreNSD_initialize
 .text.coreNSD_convertToSystemEndian16
                0x0000b1ce        0x8 Network/coreNSDStack.o
                0x0000b1ce                coreNSD_convertToSystemEndian16
 .text.coreNSD_calculateCRC32
                0x0000b1d6       0x9a Network/coreNSDStack.o
                0x0000b1d6                coreNSD_calculateCRC32
 .text.coreNSD_setGAINMessageIdentifier
                0x0000b270       0x24 Network/coreNSDStack.o
                0x0000b270                coreNSD_setGAINMessageIdentifier
 .text.coreNSD_isValidIdentifier
                0x0000b294       0x78 Network/coreNSDStack.o
                0x0000b294                coreNSD_isValidIdentifier
 .text.coreNSD_getGAINPB_Remaining_Time
                0x0000b30c       0x20 Network/coreNSDStack.o
                0x0000b30c                coreNSD_getGAINPB_Remaining_Time
 .text.coreNSD_getGAINUsed_Power_Budget
                0x0000b32c       0x16 Network/coreNSDStack.o
                0x0000b32c                coreNSD_getGAINUsed_Power_Budget
 .text.coreNSD_getPBRMinimalPowerBudget
                0x0000b342       0x16 Network/coreNSDStack.o
                0x0000b342                coreNSD_getPBRMinimalPowerBudget
 .text.coreNSD_getMGCUImplemented_Functionalities
                0x0000b358       0x10 Network/coreNSDStack.o
                0x0000b358                coreNSD_getMGCUImplemented_Functionalities
 .text.coreNSD_getMGCUPower_Info_Feeder
                0x0000b368       0x1e Network/coreNSDStack.o
                0x0000b368                coreNSD_getMGCUPower_Info_Feeder
 .text.coreNSD_getPBMPowerBudgetMax
                0x0000b386       0x16 Network/coreNSDStack.o
                0x0000b386                coreNSD_getPBMPowerBudgetMax
 .text.coreNSD_getPBMTime
                0x0000b39c       0x20 Network/coreNSDStack.o
                0x0000b39c                coreNSD_getPBMTime
 .text.coreNSD_setCANMessagePayloadData
                0x0000b3bc       0x48 Network/coreNSDStack.o
                0x0000b3bc                coreNSD_setCANMessagePayloadData
 .text.coreNSD_setGAINMode
                0x0000b404       0x10 Network/coreNSDStack.o
                0x0000b404                coreNSD_setGAINMode
 .text.coreNSD_setGAINState
                0x0000b414       0x10 Network/coreNSDStack.o
                0x0000b414                coreNSD_setGAINState
 .text.coreNSD_setGAINUsed_Power_Budget
                0x0000b424       0x2a Network/coreNSDStack.o
                0x0000b424                coreNSD_setGAINUsed_Power_Budget
 .text.coreNSD_setGAINFallback_Power_Budget
                0x0000b44e       0x2a Network/coreNSDStack.o
                0x0000b44e                coreNSD_setGAINFallback_Power_Budget
 .text.coreNSD_setGAINPB_Remaining_Time
                0x0000b478       0x2c Network/coreNSDStack.o
                0x0000b478                coreNSD_setGAINPB_Remaining_Time
 .text.coreNSD_setGAINImpl_Functionalities
                0x0000b4a4       0x10 Network/coreNSDStack.o
                0x0000b4a4                coreNSD_setGAINImpl_Functionalities
 .text.coreNSD_setGAINFeeder_ID
                0x0000b4b4       0x10 Network/coreNSDStack.o
                0x0000b4b4                coreNSD_setGAINFeeder_ID
 .text.coreNSD_setGAINPTStandbyPowerThreshold
                0x0000b4c4       0x2a Network/coreNSDStack.o
                0x0000b4c4                coreNSD_setGAINPTStandbyPowerThreshold
 .text.coreNSD_setGAINPTMaximumPowerThreshold
                0x0000b4ee       0x2a Network/coreNSDStack.o
                0x0000b4ee                coreNSD_setGAINPTMaximumPowerThreshold
 .text.coreNSD_setGAINPTMinimumPowerThreshold
                0x0000b518       0x2a Network/coreNSDStack.o
                0x0000b518                coreNSD_setGAINPTMinimumPowerThreshold
 .text.coreNSD_setGAINPTFallbackPowerThreshold
                0x0000b542       0x2a Network/coreNSDStack.o
                0x0000b542                coreNSD_setGAINPTFallbackPowerThreshold
 .text.coreNSD_setPBRNominalPowerBudget
                0x0000b56c       0x2a Network/coreNSDStack.o
                0x0000b56c                coreNSD_setPBRNominalPowerBudget
 .text.coreNSD_setPBRMinimalPowerBudget
                0x0000b596       0x2a Network/coreNSDStack.o
                0x0000b596                coreNSD_setPBRMinimalPowerBudget
 .text.coreNSD_setPBRNeededTimeWithNominalPB
                0x0000b5c0       0x2c Network/coreNSDStack.o
                0x0000b5c0                coreNSD_setPBRNeededTimeWithNominalPB
 .text.coreNSD_setPBRNeededTimeWithMinimalPB
                0x0000b5ec       0x2c Network/coreNSDStack.o
                0x0000b5ec                coreNSD_setPBRNeededTimeWithMinimalPB
 .text.coreNSD_setCANMessagePayloadDataBit
                0x0000b618       0x42 Network/coreNSDStack.o
                0x0000b618                coreNSD_setCANMessagePayloadDataBit
 .text.coreNSD_setGAINGAIN_Is_Primary
                0x0000b65a        0xa Network/coreNSDStack.o
                0x0000b65a                coreNSD_setGAINGAIN_Is_Primary
 .text.coreNSD_setGAINMGCU_Is_Present
                0x0000b664        0xa Network/coreNSDStack.o
                0x0000b664                coreNSD_setGAINMGCU_Is_Present
 .text.coreNSD_setPBRPowerBudgetType
                0x0000b66e        0xa Network/coreNSDStack.o
                0x0000b66e                coreNSD_setPBRPowerBudgetType
 .text.coreNSD_getCANMessagePayloadDataBit
                0x0000b678       0x32 Network/coreNSDStack.o
                0x0000b678                coreNSD_getCANMessagePayloadDataBit
 .text.coreNSD_getMGCUDisinfection_Mode
                0x0000b6aa        0x8 Network/coreNSDStack.o
                0x0000b6aa                coreNSD_getMGCUDisinfection_Mode
 .text.coreNSD_getMGCUCentral_Power_Valid_On_Feeder
                0x0000b6b2        0x8 Network/coreNSDStack.o
                0x0000b6b2                coreNSD_getMGCUCentral_Power_Valid_On_Feeder
 .text.coreNSD_getRSD
                0x0000b6ba       0x1a Network/coreNSDStack.o
                0x0000b6ba                coreNSD_getRSD
 .text.coreNSD_getPVT
                0x0000b6d4        0x4 Network/coreNSDStack.o
                0x0000b6d4                coreNSD_getPVT
 .text.coreNSD_getMessageCode
                0x0000b6d8       0x1a Network/coreNSDStack.o
                0x0000b6d8                coreNSD_getMessageCode
 .text.coreNSD_setDeviceID
                0x0000b6f2       0x46 Network/coreNSDStack.o
                0x0000b6f2                coreNSD_setDeviceID
 .text.getControllerTicksHandler
                0x0000b738       0x16 Network/NSDHandler.o
                0x0000b738                getControllerTicksHandler
 .text.CANWriteMessageHandler
                0x0000b74e        0xa Network/NSDHandler.o
                0x0000b74e                CANWriteMessageHandler
 .text.readGAINConfigurationDataHandler
                0x0000b758       0x34 Network/NSDHandler.o
                0x0000b758                readGAINConfigurationDataHandler
 .text.writeGAINConfigurationDataHandler
                0x0000b78c       0x34 Network/NSDHandler.o
                0x0000b78c                writeGAINConfigurationDataHandler
 .text.networkStateChangedHandler
                0x0000b7c0       0xd0 Network/NSDHandler.o
                0x0000b7c0                networkStateChangedHandler
 .text.selfTestRequestHandler
                0x0000b890       0x3a Network/NSDHandler.o
                0x0000b890                selfTestRequestHandler
 .text.powerControlStateChangedHandler
                0x0000b8ca       0x34 Network/NSDHandler.o
                0x0000b8ca                powerControlStateChangedHandler
 .text._ZN10NSDHandlerC2Ev
                0x0000b8fe       0x7c Network/NSDHandler.o
                0x0000b8fe                _ZN10NSDHandlerC1Ev
                0x0000b8fe                _ZN10NSDHandlerC2Ev
 .text._ZN10NSDHandler25connectionStateDeterminedEv
                0x0000b97a       0x6c Network/NSDHandler.o
                0x0000b97a                _ZN10NSDHandler25connectionStateDeterminedEv
 .text._ZN10NSDHandler41setPHSMValueNumberOfReceiveErrorsDetectedEj
                0x0000b9e6       0x24 Network/NSDHandler.o
                0x0000b9e6                _ZN10NSDHandler41setPHSMValueNumberOfReceiveErrorsDetectedEj
 .text._ZN10NSDHandler42setPHSMValueNumberOfTransmitErrorsDetectedEj
                0x0000ba0a       0x24 Network/NSDHandler.o
                0x0000ba0a                _ZN10NSDHandler42setPHSMValueNumberOfTransmitErrorsDetectedEj
 .text._ZN10NSDHandler29setPHSMValueNumberOfCANResetsEj
                0x0000ba2e       0x24 Network/NSDHandler.o
                0x0000ba2e                _ZN10NSDHandler29setPHSMValueNumberOfCANResetsEj
 .text._ZN10NSDHandler9cancelPBREv
                0x0000ba52       0x20 Network/NSDHandler.o
                0x0000ba52                _ZN10NSDHandler9cancelPBREv
 .text._ZN10NSDHandler11addDIAGCodeE11NSDDiagCode
                0x0000ba72       0xa6 Network/NSDHandler.o
                0x0000ba72                _ZN10NSDHandler11addDIAGCodeE11NSDDiagCode
 .text._ZN10NSDHandler10setPinCodeEm
                0x0000bb18      0x29e Network/NSDHandler.o
                0x0000bb18                _ZN10NSDHandler10setPinCodeEm
 .text._ZN10NSDHandler6resumeEm8GAINMode9GAINStatejl
                0x0000bdb6       0xec Network/NSDHandler.o
                0x0000bdb6                _ZN10NSDHandler6resumeEm8GAINMode9GAINStatejl
 .text._ZN10NSDHandler14removeDIAGCodeE11NSDDiagCode
                0x0000bea2      0x108 Network/NSDHandler.o
                0x0000bea2                _ZN10NSDHandler14removeDIAGCodeE11NSDDiagCode
 .text._ZN10NSDHandler9clearDIAGEv
                0x0000bfaa       0x26 Network/NSDHandler.o
                0x0000bfaa                _ZN10NSDHandler9clearDIAGEv
 .text._ZN10NSDHandler14sendNSDMessageEh
                0x0000bfd0      0x164 Network/NSDHandler.o
                0x0000bfd0                _ZN10NSDHandler14sendNSDMessageEh
 .text._ZN10NSDHandler11setGAINModeE8GAINModeb
                0x0000c134       0x2e Network/NSDHandler.o
                0x0000c134                _ZN10NSDHandler11setGAINModeE8GAINModeb
 .text._ZN10NSDHandler12setGAINStateE9GAINStateb
                0x0000c162       0x2e Network/NSDHandler.o
                0x0000c162                _ZN10NSDHandler12setGAINStateE9GAINStateb
 .text._ZN10NSDHandler17initializeHandlerEj
                0x0000c190      0x2ce Network/NSDHandler.o
                0x0000c190                _ZN10NSDHandler17initializeHandlerEj
 .text._ZN10NSDHandler22setGAINPowerBudgetUsedEjb
                0x0000c45e       0xa8 Network/NSDHandler.o
                0x0000c45e                _ZN10NSDHandler22setGAINPowerBudgetUsedEjb
 .text._ZN10NSDHandler20setGAINRemainingTimeElb
                0x0000c506       0x8c Network/NSDHandler.o
                0x0000c506                _ZN10NSDHandler20setGAINRemainingTimeElb
 .text._ZN10NSDHandler7sendPBREjiji
                0x0000c592       0xc2 Network/NSDHandler.o
                0x0000c592                _ZN10NSDHandler7sendPBREjiji
 .text._ZN10NSDHandler7sendPBREjljl
                0x0000c654       0xbe Network/NSDHandler.o
                0x0000c654                _ZN10NSDHandler7sendPBREjljl
 .text._ZN10NSDHandler8sendDIAGEb
                0x0000c712       0x4e Network/NSDHandler.o
                0x0000c712                _ZN10NSDHandler8sendDIAGEb
 .text._ZN10NSDHandler14handleSTA_MGCUERK10NSDMessage
                0x0000c760       0xfa Network/NSDHandler.o
                0x0000c760                _ZN10NSDHandler14handleSTA_MGCUERK10NSDMessage
 .text._ZN10NSDHandler9handlePBMERK10NSDMessage
                0x0000c85a      0x18e Network/NSDHandler.o
                0x0000c85a                _ZN10NSDHandler9handlePBMERK10NSDMessage
 .text._ZN10NSDHandler17handleFLIGHT_INFOERK10NSDMessage
                0x0000c9e8      0x14a Network/NSDHandler.o
                0x0000c9e8                _ZN10NSDHandler17handleFLIGHT_INFOERK10NSDMessage
 .text._ZN10NSDHandler14handleDIAG_CMDERK10NSDMessage
                0x0000cb32       0x2c Network/NSDHandler.o
                0x0000cb32                _ZN10NSDHandler14handleDIAG_CMDERK10NSDMessage
 .text._ZN10NSDHandler23handleDataUploadRequestERK10NSDMessage
                0x0000cb5e      0x174 Network/NSDHandler.o
                0x0000cb5e                _ZN10NSDHandler23handleDataUploadRequestERK10NSDMessage
 .text._ZN10NSDHandler16handleDataUploadERK10NSDMessage
                0x0000ccd2      0x206 Network/NSDHandler.o
                0x0000ccd2                _ZN10NSDHandler16handleDataUploadERK10NSDMessage
 .text._ZN10NSDHandler25handleDataDownloadRequestERK10NSDMessage
                0x0000ced8      0x29c Network/NSDHandler.o
                0x0000ced8                _ZN10NSDHandler25handleDataDownloadRequestERK10NSDMessage
 .text._ZN10NSDHandler15messageReceivedERK10CANMessage
                0x0000d174      0x13a Network/NSDHandler.o
                0x0000d174                _ZN10NSDHandler15messageReceivedERK10CANMessage
 .text._ZN10NSDHandler18handleDataDownloadEv
                0x0000d2ae      0x2a4 Network/NSDHandler.o
                0x0000d2ae                _ZN10NSDHandler18handleDataDownloadEv
 .text._ZN10NSDHandler18handlePeriodicTaskER13MGCUStateBits
                0x0000d552      0x3dc Network/NSDHandler.o
                0x0000d552                _ZN10NSDHandler18handlePeriodicTaskER13MGCUStateBits
 .text._GLOBAL__sub_I_NSD
                0x0000d92e        0xa Network/NSDHandler.o
 .text._ZN10NSDMessageC2Ev
                0x0000d938       0x38 Network/NSDMessage.o
                0x0000d938                _ZN10NSDMessageC1Ev
                0x0000d938                _ZN10NSDMessageC2Ev
 .text._ZN10NSDMessage11setDeviceIDEh
                0x0000d970        0x6 Network/NSDMessage.o
                0x0000d970                _ZN10NSDMessage11setDeviceIDEh
 .text._ZN10NSDMessage18addDIAG_WarningBitE13NSDWarningBit
                0x0000d976       0x34 Network/NSDMessage.o
                0x0000d976                _ZN10NSDMessage18addDIAG_WarningBitE13NSDWarningBit
 .text._ZN10NSDMessage22addDIAG_MalfunctionBitE17NSDMalfunctionBit
                0x0000d9aa       0x34 Network/NSDMessage.o
                0x0000d9aa                _ZN10NSDMessage22addDIAG_MalfunctionBitE17NSDMalfunctionBit
 .text._ZN10NSDMessage18addDIAG_FailureBitE13NSDFailureBit
                0x0000d9de       0x34 Network/NSDMessage.o
                0x0000d9de                _ZN10NSDMessage18addDIAG_FailureBitE13NSDFailureBit
 .text._ZN10NSDMessage21removeDIAG_WarningBitE13NSDWarningBit
                0x0000da12       0xac Network/NSDMessage.o
                0x0000da12                _ZN10NSDMessage21removeDIAG_WarningBitE13NSDWarningBit
 .text._ZN10NSDMessage25removeDIAG_MalfunctionBitE17NSDMalfunctionBit
                0x0000dabe       0xac Network/NSDMessage.o
                0x0000dabe                _ZN10NSDMessage25removeDIAG_MalfunctionBitE17NSDMalfunctionBit
 .text._ZN10NSDMessage21removeDIAG_FailureBitE13NSDFailureBit
                0x0000db6a       0xac Network/NSDMessage.o
                0x0000db6a                _ZN10NSDMessage21removeDIAG_FailureBitE13NSDFailureBit
 .text._ZN10NSDMessage9clearDIAGEv
                0x0000dc16       0x10 Network/NSDMessage.o
                0x0000dc16                _ZN10NSDMessage9clearDIAGEv
 .text._ZN9PinCodingC2Ev
                0x0000dc26        0xc PinCoding/PinCoding.o
                0x0000dc26                _ZN9PinCodingC2Ev
                0x0000dc26                _ZN9PinCodingC1Ev
 .text._ZN9PinCoding15updatePinCodingEv
                0x0000dc32      0x278 PinCoding/PinCoding.o
                0x0000dc32                _ZN9PinCoding15updatePinCodingEv
 .text._ZN9PinCoding7connectEPj
                0x0000deaa       0xf8 PinCoding/PinCoding.o
                0x0000deaa                _ZN9PinCoding7connectEPj
 .text._ZN9PinCoding17getPinCodingValueEv
                0x0000dfa2        0xc PinCoding/PinCoding.o
                0x0000dfa2                _ZN9PinCoding17getPinCodingValueEv
 .text._ZN9PinCoding24readoutPhaseCurrentValueEh
                0x0000dfae       0xc2 PinCoding/PinCoding.o
                0x0000dfae                _ZN9PinCoding24readoutPhaseCurrentValueEh
 .text._ZN9PinCoding13getPhaseValueEh
                0x0000e070       0x12 PinCoding/PinCoding.o
                0x0000e070                _ZN9PinCoding13getPhaseValueEh
 .text._ZN9PinCoding18handlePeriodicTaskEb
                0x0000e082      0x2b8 PinCoding/PinCoding.o
                0x0000e082                _ZN9PinCoding18handlePeriodicTaskEb
 .text._ZN9PinCoding22elementFailureDetectedERh
                0x0000e33a       0x66 PinCoding/PinCoding.o
                0x0000e33a                _ZN9PinCoding22elementFailureDetectedERh
 .text._ZN9PinCoding26thermalFuseFailureDetectedEv
                0x0000e3a0       0x26 PinCoding/PinCoding.o
                0x0000e3a0                _ZN9PinCoding26thermalFuseFailureDetectedEv
 .text.avr-libc.fplib
                0x0000e3c6        0xa c:/program files (x86)/atmel/studio/7.0/toolchain/avr8/avr8-gnu-toolchain/bin/../lib/gcc/avr/5.4.0/../../../../avr/lib/avr51\libm.a(addsf3.o)
                0x0000e3c6                __subsf3
                0x0000e3c8                __addsf3
 .text.avr-libc.fplib
                0x0000e3d0       0xc0 c:/program files (x86)/atmel/studio/7.0/toolchain/avr8/avr8-gnu-toolchain/bin/../lib/gcc/avr/5.4.0/../../../../avr/lib/avr51\libm.a(addsf3x.o)
                0x0000e3ea                __addsf3x
 .text.avr-libc.fplib
                0x0000e490        0x8 c:/program files (x86)/atmel/studio/7.0/toolchain/avr8/avr8-gnu-toolchain/bin/../lib/gcc/avr/5.4.0/../../../../avr/lib/avr51\libm.a(cmpsf2.o)
                0x0000e490                __nesf2
                0x0000e490                __eqsf2
                0x0000e490                __cmpsf2
                0x0000e490                __ltsf2
                0x0000e490                __lesf2
 .text.avr-libc.fplib
                0x0000e498        0x4 c:/program files (x86)/atmel/studio/7.0/toolchain/avr8/avr8-gnu-toolchain/bin/../lib/gcc/avr/5.4.0/../../../../avr/lib/avr51\libm.a(divsf3.o)
                0x0000e498                __divsf3
 .text.avr-libc.fplib
                0x0000e49c       0xcc c:/program files (x86)/atmel/studio/7.0/toolchain/avr8/avr8-gnu-toolchain/bin/../lib/gcc/avr/5.4.0/../../../../avr/lib/avr51\libm.a(divsf3x.o)
                0x0000e4b2                __divsf3x
                0x0000e4b6                __divsf3_pse
 .text.avr-libc.fplib
                0x0000e568       0x62 c:/program files (x86)/atmel/studio/7.0/toolchain/avr8/avr8-gnu-toolchain/bin/../lib/gcc/avr/5.4.0/../../../../avr/lib/avr51\libm.a(exp.o)
                0x0000e572                exp
 .text.avr-libc.fplib
                0x0000e5ca        0xa c:/program files (x86)/atmel/studio/7.0/toolchain/avr8/avr8-gnu-toolchain/bin/../lib/gcc/avr/5.4.0/../../../../avr/lib/avr51\libm.a(fixsfsi.o)
                0x0000e5ca                __fixsfsi
 .text.avr-libc.fplib
                0x0000e5d4       0x58 c:/program files (x86)/atmel/studio/7.0/toolchain/avr8/avr8-gnu-toolchain/bin/../lib/gcc/avr/5.4.0/../../../../avr/lib/avr51\libm.a(fixunssfsi.o)
                0x0000e5d4                __fixunssfsi
 .text.avr-libc.fplib
                0x0000e62c       0x7a c:/program files (x86)/atmel/studio/7.0/toolchain/avr8/avr8-gnu-toolchain/bin/../lib/gcc/avr/5.4.0/../../../../avr/lib/avr51\libm.a(floatsisf.o)
                0x0000e62c                __floatunsisf
                0x0000e630                __floatsisf
 .text.avr-libc.fplib
                0x0000e6a6       0x48 c:/program files (x86)/atmel/studio/7.0/toolchain/avr8/avr8-gnu-toolchain/bin/../lib/gcc/avr/5.4.0/../../../../avr/lib/avr51\libm.a(fp_cmp.o)
                0x0000e6a6                __fp_cmp
 .text.avr-libc.fplib
                0x0000e6ee        0xc c:/program files (x86)/atmel/studio/7.0/toolchain/avr8/avr8-gnu-toolchain/bin/../lib/gcc/avr/5.4.0/../../../../avr/lib/avr51\libm.a(fp_inf.o)
                0x0000e6ee                __fp_inf
 .text.avr-libc.fplib
                0x0000e6fa       0x1c c:/program files (x86)/atmel/studio/7.0/toolchain/avr8/avr8-gnu-toolchain/bin/../lib/gcc/avr/5.4.0/../../../../avr/lib/avr51\libm.a(fp_mpack.o)
                0x0000e6fa                __fp_mpack
                0x0000e6fe                __fp_mpack_finite
 .text.avr-libc.fplib
                0x0000e716        0x6 c:/program files (x86)/atmel/studio/7.0/toolchain/avr8/avr8-gnu-toolchain/bin/../lib/gcc/avr/5.4.0/../../../../avr/lib/avr51\libm.a(fp_nan.o)
                0x0000e716                __fp_nan
 .text.avr-libc.fplib
                0x0000e71c       0x4a c:/program files (x86)/atmel/studio/7.0/toolchain/avr8/avr8-gnu-toolchain/bin/../lib/gcc/avr/5.4.0/../../../../avr/lib/avr51\libm.a(fp_powser.o)
                0x0000e71c                __fp_powser
 .text.avr-libc.fplib
                0x0000e766        0xe c:/program files (x86)/atmel/studio/7.0/toolchain/avr8/avr8-gnu-toolchain/bin/../lib/gcc/avr/5.4.0/../../../../avr/lib/avr51\libm.a(fp_pscA.o)
                0x0000e766                __fp_pscA
 .text.avr-libc.fplib
                0x0000e774        0xe c:/program files (x86)/atmel/studio/7.0/toolchain/avr8/avr8-gnu-toolchain/bin/../lib/gcc/avr/5.4.0/../../../../avr/lib/avr51\libm.a(fp_pscB.o)
                0x0000e774                __fp_pscB
 .text.avr-libc.fplib
                0x0000e782       0x22 c:/program files (x86)/atmel/studio/7.0/toolchain/avr8/avr8-gnu-toolchain/bin/../lib/gcc/avr/5.4.0/../../../../avr/lib/avr51\libm.a(fp_round.o)
                0x0000e782                __fp_round
 .text.avr-libc.fplib
                0x0000e7a4       0x44 c:/program files (x86)/atmel/studio/7.0/toolchain/avr8/avr8-gnu-toolchain/bin/../lib/gcc/avr/5.4.0/../../../../avr/lib/avr51\libm.a(fp_split3.o)
                0x0000e7a4                __fp_split3
                0x0000e7b4                __fp_splitA
 .text.avr-libc.fplib
                0x0000e7e8        0xe c:/program files (x86)/atmel/studio/7.0/toolchain/avr8/avr8-gnu-toolchain/bin/../lib/gcc/avr/5.4.0/../../../../avr/lib/avr51\libm.a(fp_zero.o)
                0x0000e7e8                __fp_zero
                0x0000e7ea                __fp_szero
 .text.avr-libc.fplib
                0x0000e7f6        0x8 c:/program files (x86)/atmel/studio/7.0/toolchain/avr8/avr8-gnu-toolchain/bin/../lib/gcc/avr/5.4.0/../../../../avr/lib/avr51\libm.a(gesf2.o)
                0x0000e7f6                __gesf2
                0x0000e7f6                __gtsf2
 .text.avr-libc.fplib
                0x0000e7fe        0xe c:/program files (x86)/atmel/studio/7.0/toolchain/avr8/avr8-gnu-toolchain/bin/../lib/gcc/avr/5.4.0/../../../../avr/lib/avr51\libm.a(inverse.o)
                0x0000e7fe                inverse
 .text.avr-libc.fplib
                0x0000e80c       0x6c c:/program files (x86)/atmel/studio/7.0/toolchain/avr8/avr8-gnu-toolchain/bin/../lib/gcc/avr/5.4.0/../../../../avr/lib/avr51\libm.a(ldexp.o)
                0x0000e810                ldexp
 .text.avr-libc.fplib
                0x0000e878       0x8a c:/program files (x86)/atmel/studio/7.0/toolchain/avr8/avr8-gnu-toolchain/bin/../lib/gcc/avr/5.4.0/../../../../avr/lib/avr51\libm.a(log.o)
                0x0000e882                log
 .text.avr-libc.fplib
                0x0000e902       0x66 c:/program files (x86)/atmel/studio/7.0/toolchain/avr8/avr8-gnu-toolchain/bin/../lib/gcc/avr/5.4.0/../../../../avr/lib/avr51\libm.a(modf.o)
                0x0000e902                modf
                0x0000e902                modff
 .text.avr-libc.fplib
                0x0000e968        0x4 c:/program files (x86)/atmel/studio/7.0/toolchain/avr8/avr8-gnu-toolchain/bin/../lib/gcc/avr/5.4.0/../../../../avr/lib/avr51\libm.a(mulsf3.o)
                0x0000e968                __mulsf3
 .text.avr-libc.fplib
                0x0000e96c       0xc2 c:/program files (x86)/atmel/studio/7.0/toolchain/avr8/avr8-gnu-toolchain/bin/../lib/gcc/avr/5.4.0/../../../../avr/lib/avr51\libm.a(mulsf3x.o)
                0x0000e980                __mulsf3x
                0x0000e984                __mulsf3_pse
 .text.libgcc.div
                0x0000ea2e       0x26 c:/program files (x86)/atmel/studio/7.0/toolchain/avr8/avr8-gnu-toolchain/bin/../lib/gcc/avr/5.4.0/avr51\libgcc.a(_divmodhi4.o)
                0x0000ea2e                _div
                0x0000ea2e                __divmodhi4
 .text.libgcc.div
                0x0000ea54       0x44 c:/program files (x86)/atmel/studio/7.0/toolchain/avr8/avr8-gnu-toolchain/bin/../lib/gcc/avr/5.4.0/avr51\libgcc.a(_udivmodsi4.o)
                0x0000ea54                __udivmodsi4
 .text.libgcc.div
                0x0000ea98       0x28 c:/program files (x86)/atmel/studio/7.0/toolchain/avr8/avr8-gnu-toolchain/bin/../lib/gcc/avr/5.4.0/avr51\libgcc.a(_divmodsi4.o)
                0x0000ea98                __divmodsi4
 .text.libgcc.div
                0x0000eac0       0x10 c:/program files (x86)/atmel/studio/7.0/toolchain/avr8/avr8-gnu-toolchain/bin/../lib/gcc/avr/5.4.0/avr51\libgcc.a(_negsi2.o)
                0x0000eac0                __negsi2
 .text.libgcc   0x0000ead0       0x12 c:/program files (x86)/atmel/studio/7.0/toolchain/avr8/avr8-gnu-toolchain/bin/../lib/gcc/avr/5.4.0/avr51\libgcc.a(_tablejump2.o)
                0x0000ead0                __tablejump2__
 .text.libgcc.mul
                0x0000eae2       0x1e c:/program files (x86)/atmel/studio/7.0/toolchain/avr8/avr8-gnu-toolchain/bin/../lib/gcc/avr/5.4.0/avr51\libgcc.a(_umulhisi3.o)
                0x0000eae2                __umulhisi3
 .text.libgcc.mul
                0x0000eb00        0xc c:/program files (x86)/atmel/studio/7.0/toolchain/avr8/avr8-gnu-toolchain/bin/../lib/gcc/avr/5.4.0/avr51\libgcc.a(_usmulhisi3.o)
                0x0000eb00                __usmulhisi3
                0x0000eb02                __usmulhisi3_tail
 .text.libgcc.mul
                0x0000eb0c       0x14 c:/program files (x86)/atmel/studio/7.0/toolchain/avr8/avr8-gnu-toolchain/bin/../lib/gcc/avr/5.4.0/avr51\libgcc.a(_muluhisi3.o)
                0x0000eb0c                __muluhisi3
 .text.libgcc.div
                0x0000eb20       0x28 c:/program files (x86)/atmel/studio/7.0/toolchain/avr8/avr8-gnu-toolchain/bin/../lib/gcc/avr/5.4.0/avr51\libgcc.a(_udivmodhi4.o)
                0x0000eb20                __udivmodhi4
 .text.avr-libc
                0x0000eb48      0x242 c:/program files (x86)/atmel/studio/7.0/toolchain/avr8/avr8-gnu-toolchain/bin/../lib/gcc/avr/5.4.0/../../../../avr/lib/avr51\libc.a(malloc.o)
                0x0000eb48                malloc
                0x0000ec78                free
 .text.avr-libc
                0x0000ed8a       0x12 c:/program files (x86)/atmel/studio/7.0/toolchain/avr8/avr8-gnu-toolchain/bin/../lib/gcc/avr/5.4.0/../../../../avr/lib/avr51\libc.a(memcpy_P.o)
                0x0000ed8a                memcpy_P
 .text.avr-libc
                0x0000ed9c       0x1e c:/program files (x86)/atmel/studio/7.0/toolchain/avr8/avr8-gnu-toolchain/bin/../lib/gcc/avr/5.4.0/../../../../avr/lib/avr51\libc.a(strncpy.o)
                0x0000ed9c                strncpy
                0x0000edba                . = ALIGN (0x2)
 *(.fini9)
 .fini9         0x0000edba        0x0 c:/program files (x86)/atmel/studio/7.0/toolchain/avr8/avr8-gnu-toolchain/bin/../lib/gcc/avr/5.4.0/avr51\libgcc.a(_exit.o)
                0x0000edba                _exit
                0x0000edba                exit
 *(.fini9)
 *(.fini8)
 *(.fini8)
 *(.fini7)
 *(.fini7)
 *(.fini6)
 .fini6         0x0000edba       0x14 c:/program files (x86)/atmel/studio/7.0/toolchain/avr8/avr8-gnu-toolchain/bin/../lib/gcc/avr/5.4.0/avr51\libgcc.a(_dtors.o)
                0x0000edba                __do_global_dtors
 *(.fini6)
 *(.fini5)
 *(.fini5)
 *(.fini4)
 *(.fini4)
 *(.fini3)
 *(.fini3)
 *(.fini2)
 *(.fini2)
 *(.fini1)
 *(.fini1)
 *(.fini0)
 .fini0         0x0000edce        0x4 c:/program files (x86)/atmel/studio/7.0/toolchain/avr8/avr8-gnu-toolchain/bin/../lib/gcc/avr/5.4.0/avr51\libgcc.a(_exit.o)
 *(.fini0)
                0x0000edd2                _etext = .

.data           0x00800100      0x1cc load address 0x0000edd2
                0x00800100                PROVIDE (__data_start, .)
 *(.data)
 .data          0x00800100        0x6 c:/program files (x86)/atmel/studio/7.0/toolchain/avr8/avr8-gnu-toolchain/bin/../lib/gcc/avr/5.4.0/../../../../avr/lib/avr51\libc.a(malloc.o)
                0x00800100                __malloc_heap_end
                0x00800102                __malloc_heap_start
                0x00800104                __malloc_margin
 *(.data*)
 .data.versionString
                0x00800106        0x2 922/version.o
                0x00800106                versionString
 .data.bootloader_start
                0x00800108        0x2 Core/coreController.o
                0x00800108                bootloader_start
 .data.PORTValue
                0x0080010a        0xe Core/corePorts.o
                0x0080010a                PORTValue
 .data.DDRValue
                0x00800118        0xe Core/corePorts.o
                0x00800118                DDRValue
 .data.PINValue
                0x00800126        0xe Core/corePorts.o
                0x00800126                PINValue
 .data.callbackCounterIntervall
                0x00800134        0x2 Core/coreSystemTimer.o
 .data.GAINConfigurationDataBlockSizeTable
                0x00800136       0x1a Network/coreNSDStack.o
                0x00800136                GAINConfigurationDataBlockSizeTable
 .data.GAINConfigurationDataBlockOffsetTable
                0x00800150       0x1a Network/coreNSDStack.o
                0x00800150                GAINConfigurationDataBlockOffsetTable
 .data.adcAddress
                0x0080016a        0x3 PinCoding/PinCoding.o
                0x0080016a                adcAddress
 .data.pcaAddress
                0x0080016d        0x1 PinCoding/PinCoding.o
                0x0080016d                pcaAddress
 *(.gnu.linkonce.d*)
 *(.rodata)
 *(.rodata*)
 .rodata.str1.1
                0x0080016e       0x2d 922/version.o
                                 0x2e (size before relaxing)
 .rodata.build  0x0080019b        0x2 922/version.o
                0x0080019b                build
 .rodata.release
                0x0080019d        0x2 922/version.o
                0x0080019d                release
 .rodata.developmentStage
                0x0080019f        0x1 922/version.o
                0x0080019f                developmentStage
 .rodata.versionBugfix
                0x008001a0        0x1 922/version.o
                0x008001a0                versionBugfix
 .rodata.versionMinor
                0x008001a1        0x1 922/version.o
                0x008001a1                versionMinor
 .rodata.versionMajor
                0x008001a2        0x1 922/version.o
                0x008001a2                versionMajor
 .rodata._ZTV12serialStream
                0x008001a3        0xe Application/eDeviceSerialStream.o
                0x008001a3                _ZTV12serialStream
 .rodata._ZTV6stream
                0x008001b1        0xe Application/eDeviceStream.o
                0x008001b1                _ZTV6stream
 .rodata.nvmPins
                0x008001bf        0x6 Core/coreNVM.o
 .rodata.nvmClocks
                0x008001c5        0x3 Core/coreNVM.o
 .rodata.nvmSPIs
                0x008001c8        0x3 Core/coreNVM.o
 .rodata.pwmLookup
                0x008001cb        0x2 Core/corePWM.o
 .rodata.pwm1deviderMap
                0x008001cd        0xe Core/corePWM.o
 .rodata.pwm0deviderMap
                0x008001db        0xe Core/corePWM.o
 .rodata.forever
                0x008001e9        0x4 Core/coreSystemTimer.o
                0x008001e9                forever
 .rodata.GAINMessageLookup
                0x008001ed       0x28 Network/coreNSDStack.o
 .rodata.NITDataBlock08
                0x00800215       0x1e Network/coreNSDStack.o
                0x00800215                NITDataBlock08
 .rodata.defaultDataBlock05
                0x00800233       0x30 Network/coreNSDStack.o
                0x00800233                defaultDataBlock05
 .rodata.defaultDataBlock01
                0x00800263        0x8 Network/coreNSDStack.o
                0x00800263                defaultDataBlock01
 .rodata._ZL20daysCumulatedPerYear
                0x0080026b       0x60 Network/NSDHandler.o
 *(.gnu.linkonce.r*)
                0x008002cc                . = ALIGN (0x2)
 *fill*         0x008002cb        0x1 
                0x008002cc                _edata = .
                0x008002cc                PROVIDE (__data_end, .)

.bss            0x008002cc      0x582
                0x008002cc                PROVIDE (__bss_start, .)
 *(.bss)
 *(.bss*)
 .bss._ZZN9GAINClass16getWaterPressureEbE15averagePressure
                0x008002cc        0x4 922/GAINClass.o
 .bss._ZZN9GAINClass21getSteamerTemperatureEbE18averageTemperature
                0x008002d0        0x4 922/GAINClass.o
 .bss._ZZN9GAINClass21getCabinetTemperatureEbE18averageTemperature
                0x008002d4        0x4 922/GAINClass.o
 .bss._ZZN9GAINClass21getAmbientTemperatureEbE18averageTemperature
                0x008002d8        0x4 922/GAINClass.o
 .bss._ZZ10checkEventvE16nextUptimeUpdate
                0x008002dc        0x4 922/GAINClass.o
 .bss._ZZ10checkEventvE24lowFanSpeedDetectionTime
                0x008002e0        0x4 922/GAINClass.o
 .bss._ZZ10checkEventvE21lowWaterDetectionTime
                0x008002e4        0x4 922/GAINClass.o
 .bss._ZZ10checkEventvE16nextSensorUpdate
                0x008002e8        0x4 922/GAINClass.o
 .bss._ZN9GAINClass23persistentConfigurationE
                0x008002ec       0x27 922/GAINClass.o
                0x008002ec                _ZN9GAINClass23persistentConfigurationE
 .bss._ZN9GAINClass15cycleDictionaryE
                0x00800313       0x10 922/GAINClass.o
                0x00800313                _ZN9GAINClass15cycleDictionaryE
 .bss._ZN9GAINClass13configurationE
                0x00800323       0x36 922/GAINClass.o
                0x00800323                _ZN9GAINClass13configurationE
 .bss.GAIN      0x00800359       0xec 922/GAINClass.o
                0x00800359                GAIN
 .bss.controller
                0x00800445        0x1 Application/eDevice.o
                0x00800445                controller
 .bss._ZN7eDevice4asc0E
                0x00800446        0x8 Application/eDevice.o
                0x00800446                _ZN7eDevice4asc0E
 .bss._ZN7eDevice9digitalIOE
                0x0080044e        0x1 Application/eDevice.o
                0x0080044e                _ZN7eDevice9digitalIOE
 .bss._ZN7eDevice3pwmE
                0x0080044f        0x2 Application/eDevice.o
                0x0080044f                _ZN7eDevice3pwmE
 .bss._ZN7eDevice4framE
                0x00800451        0x1 Application/eDevice.o
                0x00800451                _ZN7eDevice4framE
 .bss._ZN7eDevice6eepromE
                0x00800452        0x1 Application/eDevice.o
                0x00800452                _ZN7eDevice6eepromE
 .bss._ZL20eDeviceIsInitialized
                0x00800453        0x1 Application/eDevice.o
 .bss.WaitEventCallbackHandler
                0x00800454        0x2 Application/eDeviceEvent.o
                0x00800454                WaitEventCallbackHandler
 .bss.eventQueueUnderflow
                0x00800456        0x2 Application/eDeviceEvent.o
                0x00800456                eventQueueUnderflow
 .bss.eventsInUse
                0x00800458        0x1 Application/eDeviceEvent.o
                0x00800458                eventsInUse
 .bss._ZL20mainThreadEventQueue
                0x00800459        0x2 Application/eDeviceEvent.o
 .bss._ZL10eventQueue
                0x0080045b        0x2 Application/eDeviceEvent.o
 .bss._ZL12eventStorage
                0x0080045d       0xa0 Application/eDeviceEvent.o
 .bss.persistent
                0x008004fd        0x1 Common/PersistenceServices.o
                0x008004fd                persistent
 .bss._ZN19PersistenceServices10lastUpdateE
                0x008004fe       0x20 Common/PersistenceServices.o
                0x008004fe                _ZN19PersistenceServices10lastUpdateE
 .bss.analogConversionMask
                0x0080051e        0x1 Core/coreADConverter.o
 .bss.analogConversionChannel
                0x0080051f        0x1 Core/coreADConverter.o
 .bss.autoTriggerSource
                0x00800520        0x1 Core/coreADConverter.o
 .bss.analogTempResultArray
                0x00800521       0x20 Core/coreADConverter.o
 .bss.analogNumberOfConversions
                0x00800541        0x2 Core/coreADConverter.o
 .bss.analogOversamplingRate
                0x00800543        0x1 Core/coreADConverter.o
 .bss.canReceiveMOb
                0x00800544        0xe Core/coreCAN.o
 .bss.canDataReadPointer
                0x00800552        0x1 Core/coreCAN.o
 .bss.canDataReceivePointer
                0x00800553        0x1 Core/coreCAN.o
 .bss.canDataOverflow
                0x00800554        0x2 Core/coreCAN.o
 .bss.canDataReceived
                0x00800556        0x1 Core/coreCAN.o
 .bss.canDataPending
                0x00800557        0x1 Core/coreCAN.o
 .bss.canActualReceiveFilterID
                0x00800558        0x1 Core/coreCAN.o
 .bss.canResetCounter
                0x00800559        0x2 Core/coreCAN.o
 .bss.interruptHandler
                0x0080055b        0x8 Core/coreController.o
 .bss.watchdogTimerState
                0x00800563        0x1 Core/coreController.o
 .bss.coreI2CSignalHandlerFired
                0x00800564        0x1 Core/coreI2C.o
 .bss.coreI2CSlaveTransmit
                0x00800565        0x2 Core/coreI2C.o
 .bss.coreI2CSlaveReceive
                0x00800567        0x2 Core/coreI2C.o
 .bss.I2cReceiveDataLength
                0x00800569        0x2 Core/coreI2C.o
 .bss.I2cReceiveDataIndex
                0x0080056b        0x2 Core/coreI2C.o
 .bss.I2cReceiveData
                0x0080056d        0x2 Core/coreI2C.o
 .bss.I2cSendDataLength
                0x0080056f        0x2 Core/coreI2C.o
 .bss.I2cSendDataIndex
                0x00800571        0x2 Core/coreI2C.o
 .bss.I2cSendData
                0x00800573        0x2 Core/coreI2C.o
 .bss.i2c0RegisterAddress
                0x00800575        0x1 Core/coreI2C.o
 .bss.i2c0RegisterPending
                0x00800576        0x1 Core/coreI2C.o
 .bss.I2cDeviceAddrRW
                0x00800577        0x1 Core/coreI2C.o
 .bss.I2cState  0x00800578        0x1 Core/coreI2C.o
 .bss.spi       0x00800579        0x1 Core/coreNVM.o
 .bss.pwmDutyCycle
                0x0080057a        0x4 Core/corePWM.o
 .bss.pwmState  0x0080057e        0x2 Core/corePWM.o
 .bss.pwmFlags  0x00800580        0x2 Core/corePWM.o
 .bss.spis      0x00800582        0xc Core/coreSPI.o
 .bss.toggleCounter.1803
                0x0080058e        0x2 Core/coreSystemTimer.o
 .bss.ticksPending.1804
                0x00800590        0x2 Core/coreSystemTimer.o
 .bss.coreSystemTimerSecondCount
                0x00800592        0x4 Core/coreSystemTimer.o
 .bss.coreSystemTimerTickCount
                0x00800596        0x4 Core/coreSystemTimer.o
                0x00800596                coreSystemTimerTickCount
 .bss.inReadTicksCriticalSection
                0x0080059a        0x1 Core/coreSystemTimer.o
                0x0080059a                inReadTicksCriticalSection
 .bss.callCoreSystemTimerWaitCallbackHandler
                0x0080059b        0x1 Core/coreSystemTimer.o
 .bss.callbackCounter
                0x0080059c        0x2 Core/coreSystemTimer.o
 .bss.coreNSDConfiguration
                0x0080059e        0xe Network/coreNSDStack.o
 .bss._ZZN10NSDHandler29setPHSMValueNumberOfCANResetsEjE17numberOfCANResets
                0x008005ac        0x2 Network/NSDHandler.o
 .bss._ZZN10NSDHandler42setPHSMValueNumberOfTransmitErrorsDetectedEjE30numberOfTransmitErrorsDetected
                0x008005ae        0x2 Network/NSDHandler.o
 .bss._ZZN10NSDHandler41setPHSMValueNumberOfReceiveErrorsDetectedEjE29numberOfReceiveErrorsDetected
                0x008005b0        0x2 Network/NSDHandler.o
 .bss._ZZN10NSDHandler18handlePeriodicTaskER13MGCUStateBitsE16nextCANResetTime
                0x008005b2        0x4 Network/NSDHandler.o
 .bss.nvmBaseAddress
                0x008005b6        0x2 Network/NSDHandler.o
                0x008005b6                nvmBaseAddress
 .bss.NSD       0x008005b8      0x119 Network/NSDHandler.o
                0x008005b8                NSD
 *(COMMON)
 COMMON         0x008006d1       0x11 Core/coreADConverter.o
                0x008006d1                analogResultArray
                0x008006e1                analogConversionReadyMask
 COMMON         0x008006e2       0x87 Core/coreAsyncSerial.o
                0x008006e2                usart1DataReceived
                0x008006e3                usart1TransferData
                0x008006e5                usart1Data
                0x00800765                usart1TransferRemaining
                0x00800767                usart1DataReceivedPointer
                0x00800768                usart1DataReadPointer
 COMMON         0x00800769        0x9 Core/coreController.o
                0x00800769                SREGSave
                0x0080076a                externalInterruptCounter
 COMMON         0x00800772       0xd8 Network/coreNSDStack.o
                0x00800772                configurationData
                0x00800822                GAINMessageInhibitTimes
 COMMON         0x0080084a        0x4 c:/program files (x86)/atmel/studio/7.0/toolchain/avr8/avr8-gnu-toolchain/bin/../lib/gcc/avr/5.4.0/../../../../avr/lib/avr51\libc.a(malloc.o)
                0x0080084a                __brkval
                0x0080084c                __flp
                0x0080084e                PROVIDE (__bss_end, .)
                0x0000edd2                __data_load_start = LOADADDR (.data)
                0x0000ef9e                __data_load_end = (__data_load_start + SIZEOF (.data))

.noinit         0x0080084e        0x0
                [!provide]                PROVIDE (__noinit_start, .)
 *(.noinit*)
                [!provide]                PROVIDE (__noinit_end, .)
                0x0080084e                _end = .
                0x0080084e                PROVIDE (__heap_start, .)

.eeprom         0x00810000        0x0
 *(.eeprom*)
                0x00810000                __eeprom_end = .

.fuse
 *(.fuse)
 *(.lfuse)
 *(.hfuse)
 *(.efuse)

.lock
 *(.lock*)

.signature
 *(.signature*)

.user_signatures
 *(.user_signatures*)

.stab
 *(.stab)

.stabstr
 *(.stabstr)

.stab.excl
 *(.stab.excl)

.stab.exclstr
 *(.stab.exclstr)

.stab.index
 *(.stab.index)

.stab.indexstr
 *(.stab.indexstr)

.comment        0x00000000       0x30
 *(.comment)
 .comment       0x00000000       0x30 922/error.o
                                 0x31 (size before relaxing)
 .comment       0x00000030       0x31 922/GAINClass.o
 .comment       0x00000030       0x31 922/version.o
 .comment       0x00000030       0x31 Application/eDevice.o
 .comment       0x00000030       0x31 Application/eDeviceDigitalIO.o
 .comment       0x00000030       0x31 Application/eDeviceEvent.o
 .comment       0x00000030       0x31 Application/eDeviceNVM.o
 .comment       0x00000030       0x31 Application/eDevicePWM.o
 .comment       0x00000030       0x31 Application/eDeviceSerialStream.o
 .comment       0x00000030       0x31 Application/eDeviceStream.o
 .comment       0x00000030       0x31 Common/ConfigurationData.o
 .comment       0x00000030       0x31 Common/MaintenanceTool.o
 .comment       0x00000030       0x31 Common/PersistenceServices.o
 .comment       0x00000030       0x31 ControlPanel/ControlPanel.o
 .comment       0x00000030       0x31 Core/coreADConverter.o
 .comment       0x00000030       0x31 Core/coreAsyncSerial.o
 .comment       0x00000030       0x31 Core/coreCAN.o
 .comment       0x00000030       0x31 Core/coreController.o
 .comment       0x00000030       0x31 Core/coreI2C.o
 .comment       0x00000030       0x31 Core/coreNVM.o
 .comment       0x00000030       0x31 Core/corePorts.o
 .comment       0x00000030       0x31 Core/corePWM.o
 .comment       0x00000030       0x31 Core/coreRTC.o
 .comment       0x00000030       0x31 Core/coreSPI.o
 .comment       0x00000030       0x31 Core/coreSystemTimer.o
 .comment       0x00000030       0x31 Core/eCore.o
 .comment       0x00000030       0x31 main.o
 .comment       0x00000030       0x31 Network/coreNSDDiagnostics.o
 .comment       0x00000030       0x31 Network/coreNSDStack.o
 .comment       0x00000030       0x31 Network/NSDHandler.o
 .comment       0x00000030       0x31 Network/NSDMessage.o
 .comment       0x00000030       0x31 PinCoding/PinCoding.o
 .comment       0x00000030       0x31 c:/program files (x86)/atmel/studio/7.0/toolchain/avr8/avr8-gnu-toolchain/bin/../lib/gcc/avr/5.4.0/../../../../avr/lib/avr51\libc.a(malloc.o)

.note.gnu.avr.deviceinfo
                0x00000000       0x40
 .note.gnu.avr.deviceinfo
                0x00000000       0x40 C:/Program Files (x86)/Atmel/Studio/7.0/Packs/Atmel/ATmega_DFP/1.3.300/gcc/dev/at90can128/avr51/crtat90can128.o

.note.gnu.build-id
 *(.note.gnu.build-id)

.debug
 *(.debug)

.line
 *(.line)

.debug_srcinfo
 *(.debug_srcinfo)

.debug_sfnames
 *(.debug_sfnames)

.debug_aranges  0x00000000     0x1248
 *(.debug_aranges)
 .debug_aranges
                0x00000000       0x18 922/error.o
 .debug_aranges
                0x00000018      0x1a0 922/GAINClass.o
 .debug_aranges
                0x000001b8       0x40 922/version.o
 .debug_aranges
                0x000001f8       0x60 Application/eDevice.o
 .debug_aranges
                0x00000258       0x20 Application/eDeviceDigitalIO.o
 .debug_aranges
                0x00000278       0x40 Application/eDeviceEvent.o
 .debug_aranges
                0x000002b8       0x20 Application/eDeviceNVM.o
 .debug_aranges
                0x000002d8       0x20 Application/eDevicePWM.o
 .debug_aranges
                0x000002f8       0x60 Application/eDeviceSerialStream.o
 .debug_aranges
                0x00000358       0xf0 Application/eDeviceStream.o
 .debug_aranges
                0x00000448       0x18 Common/ConfigurationData.o
 .debug_aranges
                0x00000460      0x108 Common/MaintenanceTool.o
 .debug_aranges
                0x00000568      0x140 Common/PersistenceServices.o
 .debug_aranges
                0x000006a8       0xb8 ControlPanel/ControlPanel.o
 .debug_aranges
                0x00000760       0x70 Core/coreADConverter.o
 .debug_aranges
                0x000007d0       0x70 Core/coreAsyncSerial.o
 .debug_aranges
                0x00000840       0xb0 Core/coreCAN.o
 .debug_aranges
                0x000008f0       0x98 Core/coreController.o
 .debug_aranges
                0x00000988       0xa0 Core/coreI2C.o
 .debug_aranges
                0x00000a28       0x48 Core/coreNVM.o
 .debug_aranges
                0x00000a70       0xc0 Core/corePorts.o
 .debug_aranges
                0x00000b30       0x50 Core/corePWM.o
 .debug_aranges
                0x00000b80       0x70 Core/coreRTC.o
 .debug_aranges
                0x00000bf0       0x88 Core/coreSPI.o
 .debug_aranges
                0x00000c78       0x50 Core/coreSystemTimer.o
 .debug_aranges
                0x00000cc8       0x20 Core/eCore.o
 .debug_aranges
                0x00000ce8       0x20 main.o
 .debug_aranges
                0x00000d08       0x18 Network/coreNSDDiagnostics.o
 .debug_aranges
                0x00000d20      0x2e8 Network/coreNSDStack.o
 .debug_aranges
                0x00001008      0x168 Network/NSDHandler.o
 .debug_aranges
                0x00001170       0x70 Network/NSDMessage.o
 .debug_aranges
                0x000011e0       0x68 PinCoding/PinCoding.o

.debug_pubnames
 *(.debug_pubnames)

.debug_info     0x00000000    0x37b52
 *(.debug_info .gnu.linkonce.wi.*)
 .debug_info    0x00000000      0xa2d C:/Program Files (x86)/Atmel/Studio/7.0/Packs/Atmel/ATmega_DFP/1.3.300/gcc/dev/at90can128/avr51/crtat90can128.o
 .debug_info    0x00000a2d      0x318 922/error.o
 .debug_info    0x00000d45     0xc7d7 922/GAINClass.o
 .debug_info    0x0000d51c      0x1ca 922/version.o
 .debug_info    0x0000d6e6     0x103f Application/eDevice.o
 .debug_info    0x0000e725      0x26c Application/eDeviceDigitalIO.o
 .debug_info    0x0000e991      0x7a3 Application/eDeviceEvent.o
 .debug_info    0x0000f134      0x168 Application/eDeviceNVM.o
 .debug_info    0x0000f29c      0x344 Application/eDevicePWM.o
 .debug_info    0x0000f5e0      0x68c Application/eDeviceSerialStream.o
 .debug_info    0x0000fc6c     0x1b39 Application/eDeviceStream.o
 .debug_info    0x000117a5      0x38d Common/ConfigurationData.o
 .debug_info    0x00011b32     0x854a Common/MaintenanceTool.o
 .debug_info    0x0001a07c     0x3410 Common/PersistenceServices.o
 .debug_info    0x0001d48c     0x61bc ControlPanel/ControlPanel.o
 .debug_info    0x00023648      0x4a3 Core/coreADConverter.o
 .debug_info    0x00023aeb      0x5af Core/coreAsyncSerial.o
 .debug_info    0x0002409a      0x7e9 Core/coreCAN.o
 .debug_info    0x00024883      0x486 Core/coreController.o
 .debug_info    0x00024d09      0x990 Core/coreI2C.o
 .debug_info    0x00025699      0xa84 Core/coreNVM.o
 .debug_info    0x0002611d      0x91c Core/corePorts.o
 .debug_info    0x00026a39      0x5e7 Core/corePWM.o
 .debug_info    0x00027020      0x807 Core/coreRTC.o
 .debug_info    0x00027827      0x78b Core/coreSPI.o
 .debug_info    0x00027fb2      0x4c5 Core/coreSystemTimer.o
 .debug_info    0x00028477      0x1e9 Core/eCore.o
 .debug_info    0x00028660     0x2637 main.o
 .debug_info    0x0002ac97      0x296 Network/coreNSDDiagnostics.o
 .debug_info    0x0002af2d     0x3323 Network/coreNSDStack.o
 .debug_info    0x0002e250     0x73f0 Network/NSDHandler.o
 .debug_info    0x00035640     0x1710 Network/NSDMessage.o
 .debug_info    0x00036d50      0xe02 PinCoding/PinCoding.o

.debug_abbrev   0x00000000     0x62e7
 *(.debug_abbrev)
 .debug_abbrev  0x00000000      0x9a0 C:/Program Files (x86)/Atmel/Studio/7.0/Packs/Atmel/ATmega_DFP/1.3.300/gcc/dev/at90can128/avr51/crtat90can128.o
 .debug_abbrev  0x000009a0       0xad 922/error.o
 .debug_abbrev  0x00000a4d      0x83f 922/GAINClass.o
 .debug_abbrev  0x0000128c       0x74 922/version.o
 .debug_abbrev  0x00001300      0x41c Application/eDevice.o
 .debug_abbrev  0x0000171c       0xff Application/eDeviceDigitalIO.o
 .debug_abbrev  0x0000181b      0x2eb Application/eDeviceEvent.o
 .debug_abbrev  0x00001b06       0xfa Application/eDeviceNVM.o
 .debug_abbrev  0x00001c00      0x1a4 Application/eDevicePWM.o
 .debug_abbrev  0x00001da4      0x266 Application/eDeviceSerialStream.o
 .debug_abbrev  0x0000200a      0x3e3 Application/eDeviceStream.o
 .debug_abbrev  0x000023ed       0xba Common/ConfigurationData.o
 .debug_abbrev  0x000024a7      0x78b Common/MaintenanceTool.o
 .debug_abbrev  0x00002c32      0x4a9 Common/PersistenceServices.o
 .debug_abbrev  0x000030db      0x5fa ControlPanel/ControlPanel.o
 .debug_abbrev  0x000036d5      0x1dd Core/coreADConverter.o
 .debug_abbrev  0x000038b2      0x252 Core/coreAsyncSerial.o
 .debug_abbrev  0x00003b04      0x2a0 Core/coreCAN.o
 .debug_abbrev  0x00003da4      0x1d6 Core/coreController.o
 .debug_abbrev  0x00003f7a      0x2b4 Core/coreI2C.o
 .debug_abbrev  0x0000422e      0x2ed Core/coreNVM.o
 .debug_abbrev  0x0000451b      0x19b Core/corePorts.o
 .debug_abbrev  0x000046b6      0x18c Core/corePWM.o
 .debug_abbrev  0x00004842      0x147 Core/coreRTC.o
 .debug_abbrev  0x00004989      0x264 Core/coreSPI.o
 .debug_abbrev  0x00004bed      0x1f4 Core/coreSystemTimer.o
 .debug_abbrev  0x00004de1       0x88 Core/eCore.o
 .debug_abbrev  0x00004e69      0x353 main.o
 .debug_abbrev  0x000051bc       0x91 Network/coreNSDDiagnostics.o
 .debug_abbrev  0x0000524d      0x31f Network/coreNSDStack.o
 .debug_abbrev  0x0000556c      0x75c Network/NSDHandler.o
 .debug_abbrev  0x00005cc8      0x239 Network/NSDMessage.o
 .debug_abbrev  0x00005f01      0x3e6 PinCoding/PinCoding.o

.debug_line     0x00000000     0xca5f
 *(.debug_line .debug_line.* .debug_line_end)
 .debug_line    0x00000000      0x175 C:/Program Files (x86)/Atmel/Studio/7.0/Packs/Atmel/ATmega_DFP/1.3.300/gcc/dev/at90can128/avr51/crtat90can128.o
 .debug_line    0x00000175       0x90 922/error.o
 .debug_line    0x00000205     0x32cb 922/GAINClass.o
 .debug_line    0x000034d0       0xfe 922/version.o
 .debug_line    0x000035ce      0x2b3 Application/eDevice.o
 .debug_line    0x00003881       0x8c Application/eDeviceDigitalIO.o
 .debug_line    0x0000390d      0x2d9 Application/eDeviceEvent.o
 .debug_line    0x00003be6       0x77 Application/eDeviceNVM.o
 .debug_line    0x00003c5d       0x84 Application/eDevicePWM.o
 .debug_line    0x00003ce1      0x17c Application/eDeviceSerialStream.o
 .debug_line    0x00003e5d      0x719 Application/eDeviceStream.o
 .debug_line    0x00004576       0x83 Common/ConfigurationData.o
 .debug_line    0x000045f9     0x10cf Common/MaintenanceTool.o
 .debug_line    0x000056c8      0x81b Common/PersistenceServices.o
 .debug_line    0x00005ee3      0xa7a ControlPanel/ControlPanel.o
 .debug_line    0x0000695d      0x3e9 Core/coreADConverter.o
 .debug_line    0x00006d46      0x3d1 Core/coreAsyncSerial.o
 .debug_line    0x00007117      0x6b5 Core/coreCAN.o
 .debug_line    0x000077cc      0x3a1 Core/coreController.o
 .debug_line    0x00007b6d      0x6e6 Core/coreI2C.o
 .debug_line    0x00008253      0x386 Core/coreNVM.o
 .debug_line    0x000085d9      0x39c Core/corePorts.o
 .debug_line    0x00008975      0x321 Core/corePWM.o
 .debug_line    0x00008c96      0x257 Core/coreRTC.o
 .debug_line    0x00008eed      0x423 Core/coreSPI.o
 .debug_line    0x00009310      0x334 Core/coreSystemTimer.o
 .debug_line    0x00009644      0x144 Core/eCore.o
 .debug_line    0x00009788      0x1f5 main.o
 .debug_line    0x0000997d       0x6c Network/coreNSDDiagnostics.o
 .debug_line    0x000099e9     0x10db Network/coreNSDStack.o
 .debug_line    0x0000aac4     0x16d6 Network/NSDHandler.o
 .debug_line    0x0000c19a      0x2f2 Network/NSDMessage.o
 .debug_line    0x0000c48c      0x5d3 PinCoding/PinCoding.o

.debug_frame    0x00000000     0x467c
 *(.debug_frame)
 .debug_frame   0x00000000      0xac8 922/GAINClass.o
 .debug_frame   0x00000ac8       0x64 922/version.o
 .debug_frame   0x00000b2c       0xcc Application/eDevice.o
 .debug_frame   0x00000bf8       0x24 Application/eDeviceDigitalIO.o
 .debug_frame   0x00000c1c       0xbc Application/eDeviceEvent.o
 .debug_frame   0x00000cd8       0x24 Application/eDeviceNVM.o
 .debug_frame   0x00000cfc       0x24 Application/eDevicePWM.o
 .debug_frame   0x00000d20       0xe4 Application/eDeviceSerialStream.o
 .debug_frame   0x00000e04      0x50c Application/eDeviceStream.o
 .debug_frame   0x00001310      0x59c Common/MaintenanceTool.o
 .debug_frame   0x000018ac      0x6e0 Common/PersistenceServices.o
 .debug_frame   0x00001f8c      0x3b4 ControlPanel/ControlPanel.o
 .debug_frame   0x00002340      0x13c Core/coreADConverter.o
 .debug_frame   0x0000247c      0x128 Core/coreAsyncSerial.o
 .debug_frame   0x000025a4      0x208 Core/coreCAN.o
 .debug_frame   0x000027ac      0x234 Core/coreController.o
 .debug_frame   0x000029e0      0x184 Core/coreI2C.o
 .debug_frame   0x00002b64      0x134 Core/coreNVM.o
 .debug_frame   0x00002c98      0x164 Core/corePorts.o
 .debug_frame   0x00002dfc       0xb4 Core/corePWM.o
 .debug_frame   0x00002eb0      0x2f0 Core/coreRTC.o
 .debug_frame   0x000031a0      0x18c Core/coreSPI.o
 .debug_frame   0x0000332c       0xec Core/coreSystemTimer.o
 .debug_frame   0x00003418       0x24 Core/eCore.o
 .debug_frame   0x0000343c       0x24 main.o
 .debug_frame   0x00003460      0x7e8 Network/coreNSDStack.o
 .debug_frame   0x00003c48      0x740 Network/NSDHandler.o
 .debug_frame   0x00004388       0xdc Network/NSDMessage.o
 .debug_frame   0x00004464      0x218 PinCoding/PinCoding.o

.debug_str      0x00000000     0xd05c
 *(.debug_str)
 .debug_str     0x00000000      0x39f C:/Program Files (x86)/Atmel/Studio/7.0/Packs/Atmel/ATmega_DFP/1.3.300/gcc/dev/at90can128/avr51/crtat90can128.o
 .debug_str     0x0000039f      0xa67 922/error.o
                                0xaac (size before relaxing)
 .debug_str     0x00000e06     0x8537 922/GAINClass.o
                               0x9ab9 (size before relaxing)
 .debug_str     0x0000933d       0x9e 922/version.o
                                0x259 (size before relaxing)
 .debug_str     0x000093db      0x258 Application/eDevice.o
                               0x124b (size before relaxing)
 .debug_str     0x00009633       0x3d Application/eDeviceDigitalIO.o
                                0x473 (size before relaxing)
 .debug_str     0x00009670      0x126 Application/eDeviceEvent.o
                                0x637 (size before relaxing)
 .debug_str     0x00009796       0x31 Application/eDeviceNVM.o
                                0x203 (size before relaxing)
 .debug_str     0x000097c7       0x31 Application/eDevicePWM.o
                                0x45d (size before relaxing)
 .debug_str     0x000097f8      0x15c Application/eDeviceSerialStream.o
                                0x467 (size before relaxing)
 .debug_str     0x00009954      0x615 Application/eDeviceStream.o
                                0x8db (size before relaxing)
 .debug_str     0x00009f69       0x7e Common/ConfigurationData.o
                                0x495 (size before relaxing)
 .debug_str     0x00009fe7      0x587 Common/MaintenanceTool.o
                               0x8fc0 (size before relaxing)
 .debug_str     0x0000a56e      0x34b Common/PersistenceServices.o
                               0x27a4 (size before relaxing)
 .debug_str     0x0000a8b9      0x37b ControlPanel/ControlPanel.o
                               0x7c9f (size before relaxing)
 .debug_str     0x0000ac34      0x204 Core/coreADConverter.o
                                0x544 (size before relaxing)
 .debug_str     0x0000ae38      0x185 Core/coreAsyncSerial.o
                                0x443 (size before relaxing)
 .debug_str     0x0000afbd      0x226 Core/coreCAN.o
                                0x4b9 (size before relaxing)
 .debug_str     0x0000b1e3      0x15d Core/coreController.o
                                0x465 (size before relaxing)
 .debug_str     0x0000b340      0x346 Core/coreI2C.o
                                0x567 (size before relaxing)
 .debug_str     0x0000b686      0x252 Core/coreNVM.o
                                0x546 (size before relaxing)
 .debug_str     0x0000b8d8      0x191 Core/corePorts.o
                                0x491 (size before relaxing)
 .debug_str     0x0000ba69      0x12a Core/corePWM.o
                                0x510 (size before relaxing)
 .debug_str     0x0000bb93      0x11c Core/coreRTC.o
                                0x31b (size before relaxing)
 .debug_str     0x0000bcaf       0xc6 Core/coreSPI.o
                                0x3fe (size before relaxing)
 .debug_str     0x0000bd75      0x128 Core/coreSystemTimer.o
                                0x432 (size before relaxing)
 .debug_str     0x0000be9d       0x10 Core/eCore.o
                                0x2d9 (size before relaxing)
 .debug_str     0x0000bead       0x13 main.o
                               0x363a (size before relaxing)
 .debug_str     0x0000bec0       0x72 Network/coreNSDDiagnostics.o
                                0x8c7 (size before relaxing)
 .debug_str     0x0000bf32      0xc45 Network/coreNSDStack.o
                               0x18f8 (size before relaxing)
 .debug_str     0x0000cb77      0x368 Network/NSDHandler.o
                               0x702d (size before relaxing)
 .debug_str     0x0000cedf       0x6b Network/NSDMessage.o
                               0x22a0 (size before relaxing)
 .debug_str     0x0000cf4a      0x112 PinCoding/PinCoding.o
                                0xb36 (size before relaxing)

.debug_loc      0x00000000    0x1b0fe
 *(.debug_loc)
 .debug_loc     0x00000000     0x6284 922/GAINClass.o
 .debug_loc     0x00006284      0x30a Application/eDevice.o
 .debug_loc     0x0000658e      0x4c0 Application/eDeviceEvent.o
 .debug_loc     0x00006a4e       0x2c Application/eDevicePWM.o
 .debug_loc     0x00006a7a      0x476 Application/eDeviceSerialStream.o
 .debug_loc     0x00006ef0     0x1d00 Application/eDeviceStream.o
 .debug_loc     0x00008bf0     0x24de Common/MaintenanceTool.o
 .debug_loc     0x0000b0ce     0x1fcc Common/PersistenceServices.o
 .debug_loc     0x0000d09a     0x169e ControlPanel/ControlPanel.o
 .debug_loc     0x0000e738      0x41f Core/coreADConverter.o
 .debug_loc     0x0000eb57      0x625 Core/coreAsyncSerial.o
 .debug_loc     0x0000f17c      0x846 Core/coreCAN.o
 .debug_loc     0x0000f9c2      0x478 Core/coreController.o
 .debug_loc     0x0000fe3a      0xa24 Core/coreI2C.o
 .debug_loc     0x0001085e      0xd13 Core/coreNVM.o
 .debug_loc     0x00011571      0x650 Core/corePorts.o
 .debug_loc     0x00011bc1      0x345 Core/corePWM.o
 .debug_loc     0x00011f06      0x947 Core/coreRTC.o
 .debug_loc     0x0001284d      0x537 Core/coreSPI.o
 .debug_loc     0x00012d84      0x27c Core/coreSystemTimer.o
 .debug_loc     0x00013000     0x350c Network/coreNSDStack.o
 .debug_loc     0x0001650c     0x35c1 Network/NSDHandler.o
 .debug_loc     0x00019acd      0x921 Network/NSDMessage.o
 .debug_loc     0x0001a3ee      0xd10 PinCoding/PinCoding.o

.debug_macinfo
 *(.debug_macinfo)

.debug_weaknames
 *(.debug_weaknames)

.debug_funcnames
 *(.debug_funcnames)

.debug_typenames
 *(.debug_typenames)

.debug_varnames
 *(.debug_varnames)

.debug_pubtypes
 *(.debug_pubtypes)

.debug_ranges   0x00000000     0x15a8
 *(.debug_ranges)
 .debug_ranges  0x00000000      0x438 922/GAINClass.o
 .debug_ranges  0x00000438       0x30 922/version.o
 .debug_ranges  0x00000468       0x50 Application/eDevice.o
 .debug_ranges  0x000004b8       0x10 Application/eDeviceDigitalIO.o
 .debug_ranges  0x000004c8       0x30 Application/eDeviceEvent.o
 .debug_ranges  0x000004f8       0x10 Application/eDeviceNVM.o
 .debug_ranges  0x00000508       0x10 Application/eDevicePWM.o
 .debug_ranges  0x00000518       0x50 Application/eDeviceSerialStream.o
 .debug_ranges  0x00000568       0xe0 Application/eDeviceStream.o
 .debug_ranges  0x00000648      0x1b0 Common/MaintenanceTool.o
 .debug_ranges  0x000007f8      0x148 Common/PersistenceServices.o
 .debug_ranges  0x00000940       0xc0 ControlPanel/ControlPanel.o
 .debug_ranges  0x00000a00       0x60 Core/coreADConverter.o
 .debug_ranges  0x00000a60       0x60 Core/coreAsyncSerial.o
 .debug_ranges  0x00000ac0       0xa0 Core/coreCAN.o
 .debug_ranges  0x00000b60       0x88 Core/coreController.o
 .debug_ranges  0x00000be8       0x90 Core/coreI2C.o
 .debug_ranges  0x00000c78       0x38 Core/coreNVM.o
 .debug_ranges  0x00000cb0       0xb0 Core/corePorts.o
 .debug_ranges  0x00000d60       0x58 Core/corePWM.o
 .debug_ranges  0x00000db8       0x60 Core/coreRTC.o
 .debug_ranges  0x00000e18       0x78 Core/coreSPI.o
 .debug_ranges  0x00000e90       0x70 Core/coreSystemTimer.o
 .debug_ranges  0x00000f00       0x10 Core/eCore.o
 .debug_ranges  0x00000f10       0x10 main.o
 .debug_ranges  0x00000f20      0x350 Network/coreNSDStack.o
 .debug_ranges  0x00001270      0x250 Network/NSDHandler.o
 .debug_ranges  0x000014c0       0x60 Network/NSDMessage.o
 .debug_ranges  0x00001520       0x88 PinCoding/PinCoding.o

.debug_macro
 *(.debug_macro)
OUTPUT(922_Oven_Test.elf elf32-avr)
LOAD linker stubs
